

Microchip Technology PIC18 LITE Macro Assembler V1.32 build 58300 
                                                                                               Sun Nov 29 20:44:20 2015

Microchip Technology Omniscient Code Generator (Lite mode) build 58300
     1                           	processor	18F27J13
     2                           	fnconf	rparam,??,?,0
     3                           	opt	pw 120
     4                           	opt	lm
     5                           	psect	idataCOMRAM,global,class=CODE,delta=1
     6                           	psect	mediumconst,global,reloc=2,class=MEDIUMCONST,delta=1
     7                           	psect	cinit,global,reloc=2,class=CODE,delta=1
     8                           	psect	bssCOMRAM,global,class=COMRAM,space=1,delta=1
     9                           	psect	dataCOMRAM,global,class=COMRAM,space=1,delta=1
    10                           	psect	bssBIGRAM,global,class=BIGRAM,space=1,delta=1
    11                           	psect	cstackCOMRAM,global,class=COMRAM,space=1,delta=1
    12                           	psect	text0,global,reloc=2,class=CODE,delta=1
    13                           	psect	text1,global,reloc=2,class=CODE,delta=1
    14                           	psect	text2,global,reloc=2,class=CODE,delta=1
    15                           	psect	text3,global,reloc=2,class=CODE,delta=1
    16                           	psect	text4,global,reloc=2,class=CODE,delta=1
    17                           	psect	text5,global,reloc=2,class=CODE,delta=1
    18                           	psect	intcode,global,reloc=2,class=CODE,delta=1
    19                           	psect	text7,global,reloc=2,class=CODE,delta=1
    20                           	psect	text8,global,reloc=2,class=CODE,delta=1
    21                           	psect	text9,global,reloc=2,class=CODE,delta=1
    22                           	psect	text10,global,reloc=2,class=CODE,delta=1
    23                           	psect	intsave_regs,global,class=BIGRAM,space=1,delta=1
    24                           	psect	rparam,global,class=COMRAM,space=1,delta=1
    25  0000                     
    26                           	psect	idataCOMRAM
    27  01167E                     __pidataCOMRAM:
    28                           	opt stack 0
    29                           
    30                           ;initializer for _MEASURE_LINE
    31  01167E  40                 	db	64
    32                           
    33                           ;initializer for _TRIGGER_LINE
    34  01167F  64                 	db	100
    35                           
    36                           	psect	mediumconst
    37  00FDCC                     __pmediumconst:
    38                           	opt stack 0
    39  00FDCC  00                 	db	0
    40  00FDCD                     _Font5x7:
    41                           	opt stack 0
    42  00FDCD  00                 	db	0
    43  00FDCE  00                 	db	0
    44  00FDCF  00                 	db	0
    45  00FDD0  00                 	db	0
    46  00FDD1  00                 	db	0
    47  00FDD2  00                 	db	0
    48  00FDD3  00                 	db	0
    49  00FDD4  5F                 	db	95
    50  00FDD5  00                 	db	0
    51  00FDD6  00                 	db	0
    52  00FDD7  00                 	db	0
    53  00FDD8  07                 	db	7
    54  00FDD9  00                 	db	0
    55  00FDDA  07                 	db	7
    56  00FDDB  00                 	db	0
    57  00FDDC  14                 	db	20
    58  00FDDD  7F                 	db	127
    59  00FDDE  14                 	db	20
    60  00FDDF  7F                 	db	127
    61  00FDE0  14                 	db	20
    62  00FDE1  24                 	db	36
    63  00FDE2  2A                 	db	42
    64  00FDE3  7F                 	db	127
    65  00FDE4  2A                 	db	42
    66  00FDE5  12                 	db	18
    67  00FDE6  23                 	db	35
    68  00FDE7  13                 	db	19
    69  00FDE8  08                 	db	8
    70  00FDE9  64                 	db	100
    71  00FDEA  62                 	db	98
    72  00FDEB  36                 	db	54
    73  00FDEC  49                 	db	73
    74  00FDED  55                 	db	85
    75  00FDEE  22                 	db	34
    76  00FDEF  50                 	db	80
    77  00FDF0  00                 	db	0
    78  00FDF1  05                 	db	5
    79  00FDF2  03                 	db	3
    80  00FDF3  00                 	db	0
    81  00FDF4  00                 	db	0
    82  00FDF5  00                 	db	0
    83  00FDF6  1C                 	db	28
    84  00FDF7  22                 	db	34
    85  00FDF8  41                 	db	65
    86  00FDF9  00                 	db	0
    87  00FDFA  00                 	db	0
    88  00FDFB  41                 	db	65
    89  00FDFC  22                 	db	34
    90  00FDFD  1C                 	db	28
    91  00FDFE  00                 	db	0
    92  00FDFF  08                 	db	8
    93  00FE00  2A                 	db	42
    94  00FE01  1C                 	db	28
    95  00FE02  2A                 	db	42
    96  00FE03  08                 	db	8
    97  00FE04  08                 	db	8
    98  00FE05  08                 	db	8
    99  00FE06  3E                 	db	62
   100  00FE07  08                 	db	8
   101  00FE08  08                 	db	8
   102  00FE09  00                 	db	0
   103  00FE0A  50                 	db	80
   104  00FE0B  30                 	db	48
   105  00FE0C  00                 	db	0
   106  00FE0D  00                 	db	0
   107  00FE0E  08                 	db	8
   108  00FE0F  08                 	db	8
   109  00FE10  08                 	db	8
   110  00FE11  08                 	db	8
   111  00FE12  08                 	db	8
   112  00FE13  00                 	db	0
   113  00FE14  60                 	db	96
   114  00FE15  60                 	db	96
   115  00FE16  00                 	db	0
   116  00FE17  00                 	db	0
   117  00FE18  20                 	db	32
   118  00FE19  10                 	db	16
   119  00FE1A  08                 	db	8
   120  00FE1B  04                 	db	4
   121  00FE1C  02                 	db	2
   122  00FE1D  3E                 	db	62
   123  00FE1E  51                 	db	81
   124  00FE1F  49                 	db	73
   125  00FE20  45                 	db	69
   126  00FE21  3E                 	db	62
   127  00FE22  00                 	db	0
   128  00FE23  42                 	db	66
   129  00FE24  7F                 	db	127
   130  00FE25  40                 	db	64
   131  00FE26  00                 	db	0
   132  00FE27  42                 	db	66
   133  00FE28  61                 	db	97
   134  00FE29  51                 	db	81
   135  00FE2A  49                 	db	73
   136  00FE2B  46                 	db	70
   137  00FE2C  21                 	db	33
   138  00FE2D  41                 	db	65
   139  00FE2E  45                 	db	69
   140  00FE2F  4B                 	db	75
   141  00FE30  31                 	db	49
   142  00FE31  18                 	db	24
   143  00FE32  14                 	db	20
   144  00FE33  12                 	db	18
   145  00FE34  7F                 	db	127
   146  00FE35  10                 	db	16
   147  00FE36  27                 	db	39
   148  00FE37  45                 	db	69
   149  00FE38  45                 	db	69
   150  00FE39  45                 	db	69
   151  00FE3A  39                 	db	57
   152  00FE3B  3C                 	db	60
   153  00FE3C  4A                 	db	74
   154  00FE3D  49                 	db	73
   155  00FE3E  49                 	db	73
   156  00FE3F  30                 	db	48
   157  00FE40  01                 	db	1
   158  00FE41  71                 	db	113
   159  00FE42  09                 	db	9
   160  00FE43  05                 	db	5
   161  00FE44  03                 	db	3
   162  00FE45  36                 	db	54
   163  00FE46  49                 	db	73
   164  00FE47  49                 	db	73
   165  00FE48  49                 	db	73
   166  00FE49  36                 	db	54
   167  00FE4A  06                 	db	6
   168  00FE4B  49                 	db	73
   169  00FE4C  49                 	db	73
   170  00FE4D  29                 	db	41
   171  00FE4E  1E                 	db	30
   172  00FE4F  00                 	db	0
   173  00FE50  36                 	db	54
   174  00FE51  36                 	db	54
   175  00FE52  00                 	db	0
   176  00FE53  00                 	db	0
   177  00FE54  00                 	db	0
   178  00FE55  56                 	db	86
   179  00FE56  36                 	db	54
   180  00FE57  00                 	db	0
   181  00FE58  00                 	db	0
   182  00FE59  00                 	db	0
   183  00FE5A  08                 	db	8
   184  00FE5B  14                 	db	20
   185  00FE5C  22                 	db	34
   186  00FE5D  41                 	db	65
   187  00FE5E  14                 	db	20
   188  00FE5F  14                 	db	20
   189  00FE60  14                 	db	20
   190  00FE61  14                 	db	20
   191  00FE62  14                 	db	20
   192  00FE63  41                 	db	65
   193  00FE64  22                 	db	34
   194  00FE65  14                 	db	20
   195  00FE66  08                 	db	8
   196  00FE67  00                 	db	0
   197  00FE68  02                 	db	2
   198  00FE69  01                 	db	1
   199  00FE6A  51                 	db	81
   200  00FE6B  09                 	db	9
   201  00FE6C  06                 	db	6
   202  00FE6D  32                 	db	50
   203  00FE6E  49                 	db	73
   204  00FE6F  79                 	db	121
   205  00FE70  41                 	db	65
   206  00FE71  3E                 	db	62
   207  00FE72  7E                 	db	126
   208  00FE73  11                 	db	17
   209  00FE74  11                 	db	17
   210  00FE75  11                 	db	17
   211  00FE76  7E                 	db	126
   212  00FE77  7F                 	db	127
   213  00FE78  49                 	db	73
   214  00FE79  49                 	db	73
   215  00FE7A  49                 	db	73
   216  00FE7B  36                 	db	54
   217  00FE7C  3E                 	db	62
   218  00FE7D  41                 	db	65
   219  00FE7E  41                 	db	65
   220  00FE7F  41                 	db	65
   221  00FE80  22                 	db	34
   222  00FE81  7F                 	db	127
   223  00FE82  41                 	db	65
   224  00FE83  41                 	db	65
   225  00FE84  22                 	db	34
   226  00FE85  1C                 	db	28
   227  00FE86  7F                 	db	127
   228  00FE87  49                 	db	73
   229  00FE88  49                 	db	73
   230  00FE89  49                 	db	73
   231  00FE8A  41                 	db	65
   232  00FE8B  7F                 	db	127
   233  00FE8C  09                 	db	9
   234  00FE8D  09                 	db	9
   235  00FE8E  01                 	db	1
   236  00FE8F  01                 	db	1
   237  00FE90  3E                 	db	62
   238  00FE91  41                 	db	65
   239  00FE92  41                 	db	65
   240  00FE93  51                 	db	81
   241  00FE94  32                 	db	50
   242  00FE95  7F                 	db	127
   243  00FE96  08                 	db	8
   244  00FE97  08                 	db	8
   245  00FE98  08                 	db	8
   246  00FE99  7F                 	db	127
   247  00FE9A  00                 	db	0
   248  00FE9B  41                 	db	65
   249  00FE9C  7F                 	db	127
   250  00FE9D  41                 	db	65
   251  00FE9E  00                 	db	0
   252  00FE9F  20                 	db	32
   253  00FEA0  40                 	db	64
   254  00FEA1  41                 	db	65
   255  00FEA2  3F                 	db	63
   256  00FEA3  01                 	db	1
   257  00FEA4  7F                 	db	127
   258  00FEA5  08                 	db	8
   259  00FEA6  14                 	db	20
   260  00FEA7  22                 	db	34
   261  00FEA8  41                 	db	65
   262  00FEA9  7F                 	db	127
   263  00FEAA  40                 	db	64
   264  00FEAB  40                 	db	64
   265  00FEAC  40                 	db	64
   266  00FEAD  40                 	db	64
   267  00FEAE  7F                 	db	127
   268  00FEAF  02                 	db	2
   269  00FEB0  04                 	db	4
   270  00FEB1  02                 	db	2
   271  00FEB2  7F                 	db	127
   272  00FEB3  7F                 	db	127
   273  00FEB4  04                 	db	4
   274  00FEB5  08                 	db	8
   275  00FEB6  10                 	db	16
   276  00FEB7  7F                 	db	127
   277  00FEB8  3E                 	db	62
   278  00FEB9  41                 	db	65
   279  00FEBA  41                 	db	65
   280  00FEBB  41                 	db	65
   281  00FEBC  3E                 	db	62
   282  00FEBD  7F                 	db	127
   283  00FEBE  09                 	db	9
   284  00FEBF  09                 	db	9
   285  00FEC0  09                 	db	9
   286  00FEC1  06                 	db	6
   287  00FEC2  3E                 	db	62
   288  00FEC3  41                 	db	65
   289  00FEC4  51                 	db	81
   290  00FEC5  21                 	db	33
   291  00FEC6  5E                 	db	94
   292  00FEC7  7F                 	db	127
   293  00FEC8  09                 	db	9
   294  00FEC9  19                 	db	25
   295  00FECA  29                 	db	41
   296  00FECB  46                 	db	70
   297  00FECC  46                 	db	70
   298  00FECD  49                 	db	73
   299  00FECE  49                 	db	73
   300  00FECF  49                 	db	73
   301  00FED0  31                 	db	49
   302  00FED1  01                 	db	1
   303  00FED2  01                 	db	1
   304  00FED3  7F                 	db	127
   305  00FED4  01                 	db	1
   306  00FED5  01                 	db	1
   307  00FED6  3F                 	db	63
   308  00FED7  40                 	db	64
   309  00FED8  40                 	db	64
   310  00FED9  40                 	db	64
   311  00FEDA  3F                 	db	63
   312  00FEDB  1F                 	db	31
   313  00FEDC  20                 	db	32
   314  00FEDD  40                 	db	64
   315  00FEDE  20                 	db	32
   316  00FEDF  1F                 	db	31
   317  00FEE0  7F                 	db	127
   318  00FEE1  20                 	db	32
   319  00FEE2  18                 	db	24
   320  00FEE3  20                 	db	32
   321  00FEE4  7F                 	db	127
   322  00FEE5  63                 	db	99
   323  00FEE6  14                 	db	20
   324  00FEE7  08                 	db	8
   325  00FEE8  14                 	db	20
   326  00FEE9  63                 	db	99
   327  00FEEA  03                 	db	3
   328  00FEEB  04                 	db	4
   329  00FEEC  78                 	db	120
   330  00FEED  04                 	db	4
   331  00FEEE  03                 	db	3
   332  00FEEF  61                 	db	97
   333  00FEF0  51                 	db	81
   334  00FEF1  49                 	db	73
   335  00FEF2  45                 	db	69
   336  00FEF3  43                 	db	67
   337  00FEF4  00                 	db	0
   338  00FEF5  00                 	db	0
   339  00FEF6  7F                 	db	127
   340  00FEF7  41                 	db	65
   341  00FEF8  41                 	db	65
   342  00FEF9  02                 	db	2
   343  00FEFA  04                 	db	4
   344  00FEFB  08                 	db	8
   345  00FEFC  10                 	db	16
   346  00FEFD  20                 	db	32
   347  00FEFE  41                 	db	65
   348  00FEFF  41                 	db	65
   349  00FF00  7F                 	db	127
   350  00FF01  00                 	db	0
   351  00FF02  00                 	db	0
   352  00FF03  04                 	db	4
   353  00FF04  02                 	db	2
   354  00FF05  01                 	db	1
   355  00FF06  02                 	db	2
   356  00FF07  04                 	db	4
   357  00FF08  40                 	db	64
   358  00FF09  40                 	db	64
   359  00FF0A  40                 	db	64
   360  00FF0B  40                 	db	64
   361  00FF0C  40                 	db	64
   362  00FF0D  00                 	db	0
   363  00FF0E  01                 	db	1
   364  00FF0F  02                 	db	2
   365  00FF10  04                 	db	4
   366  00FF11  00                 	db	0
   367  00FF12  20                 	db	32
   368  00FF13  54                 	db	84
   369  00FF14  54                 	db	84
   370  00FF15  54                 	db	84
   371  00FF16  78                 	db	120
   372  00FF17  7F                 	db	127
   373  00FF18  48                 	db	72
   374  00FF19  44                 	db	68
   375  00FF1A  44                 	db	68
   376  00FF1B  38                 	db	56
   377  00FF1C  38                 	db	56
   378  00FF1D  44                 	db	68
   379  00FF1E  44                 	db	68
   380  00FF1F  44                 	db	68
   381  00FF20  20                 	db	32
   382  00FF21  38                 	db	56
   383  00FF22  44                 	db	68
   384  00FF23  44                 	db	68
   385  00FF24  48                 	db	72
   386  00FF25  7F                 	db	127
   387  00FF26  38                 	db	56
   388  00FF27  54                 	db	84
   389  00FF28  54                 	db	84
   390  00FF29  54                 	db	84
   391  00FF2A  18                 	db	24
   392  00FF2B  08                 	db	8
   393  00FF2C  7E                 	db	126
   394  00FF2D  09                 	db	9
   395  00FF2E  01                 	db	1
   396  00FF2F  02                 	db	2
   397  00FF30  08                 	db	8
   398  00FF31  14                 	db	20
   399  00FF32  54                 	db	84
   400  00FF33  54                 	db	84
   401  00FF34  3C                 	db	60
   402  00FF35  7F                 	db	127
   403  00FF36  08                 	db	8
   404  00FF37  04                 	db	4
   405  00FF38  04                 	db	4
   406  00FF39  78                 	db	120
   407  00FF3A  00                 	db	0
   408  00FF3B  44                 	db	68
   409  00FF3C  7D                 	db	125
   410  00FF3D  40                 	db	64
   411  00FF3E  00                 	db	0
   412  00FF3F  20                 	db	32
   413  00FF40  40                 	db	64
   414  00FF41  44                 	db	68
   415  00FF42  3D                 	db	61
   416  00FF43  00                 	db	0
   417  00FF44  00                 	db	0
   418  00FF45  7F                 	db	127
   419  00FF46  10                 	db	16
   420  00FF47  28                 	db	40
   421  00FF48  44                 	db	68
   422  00FF49  00                 	db	0
   423  00FF4A  41                 	db	65
   424  00FF4B  7F                 	db	127
   425  00FF4C  40                 	db	64
   426  00FF4D  00                 	db	0
   427  00FF4E  7C                 	db	124
   428  00FF4F  04                 	db	4
   429  00FF50  18                 	db	24
   430  00FF51  04                 	db	4
   431  00FF52  78                 	db	120
   432  00FF53  7C                 	db	124
   433  00FF54  08                 	db	8
   434  00FF55  04                 	db	4
   435  00FF56  04                 	db	4
   436  00FF57  78                 	db	120
   437  00FF58  38                 	db	56
   438  00FF59  44                 	db	68
   439  00FF5A  44                 	db	68
   440  00FF5B  44                 	db	68
   441  00FF5C  38                 	db	56
   442  00FF5D  7C                 	db	124
   443  00FF5E  14                 	db	20
   444  00FF5F  14                 	db	20
   445  00FF60  14                 	db	20
   446  00FF61  08                 	db	8
   447  00FF62  08                 	db	8
   448  00FF63  14                 	db	20
   449  00FF64  14                 	db	20
   450  00FF65  18                 	db	24
   451  00FF66  7C                 	db	124
   452  00FF67  7C                 	db	124
   453  00FF68  08                 	db	8
   454  00FF69  04                 	db	4
   455  00FF6A  04                 	db	4
   456  00FF6B  08                 	db	8
   457  00FF6C  48                 	db	72
   458  00FF6D  54                 	db	84
   459  00FF6E  54                 	db	84
   460  00FF6F  54                 	db	84
   461  00FF70  20                 	db	32
   462  00FF71  04                 	db	4
   463  00FF72  3F                 	db	63
   464  00FF73  44                 	db	68
   465  00FF74  40                 	db	64
   466  00FF75  20                 	db	32
   467  00FF76  3C                 	db	60
   468  00FF77  40                 	db	64
   469  00FF78  40                 	db	64
   470  00FF79  20                 	db	32
   471  00FF7A  7C                 	db	124
   472  00FF7B  1C                 	db	28
   473  00FF7C  20                 	db	32
   474  00FF7D  40                 	db	64
   475  00FF7E  20                 	db	32
   476  00FF7F  1C                 	db	28
   477  00FF80  3C                 	db	60
   478  00FF81  40                 	db	64
   479  00FF82  30                 	db	48
   480  00FF83  40                 	db	64
   481  00FF84  3C                 	db	60
   482  00FF85  44                 	db	68
   483  00FF86  28                 	db	40
   484  00FF87  10                 	db	16
   485  00FF88  28                 	db	40
   486  00FF89  44                 	db	68
   487  00FF8A  0C                 	db	12
   488  00FF8B  50                 	db	80
   489  00FF8C  50                 	db	80
   490  00FF8D  50                 	db	80
   491  00FF8E  3C                 	db	60
   492  00FF8F  44                 	db	68
   493  00FF90  64                 	db	100
   494  00FF91  54                 	db	84
   495  00FF92  4C                 	db	76
   496  00FF93  44                 	db	68
   497  00FF94  00                 	db	0
   498  00FF95  08                 	db	8
   499  00FF96  36                 	db	54
   500  00FF97  41                 	db	65
   501  00FF98  00                 	db	0
   502  00FF99  00                 	db	0
   503  00FF9A  00                 	db	0
   504  00FF9B  7F                 	db	127
   505  00FF9C  00                 	db	0
   506  00FF9D  00                 	db	0
   507  00FF9E  00                 	db	0
   508  00FF9F  41                 	db	65
   509  00FFA0  36                 	db	54
   510  00FFA1  08                 	db	8
   511  00FFA2  00                 	db	0
   512  00FFA3  08                 	db	8
   513  00FFA4  08                 	db	8
   514  00FFA5  2A                 	db	42
   515  00FFA6  1C                 	db	28
   516  00FFA7  08                 	db	8
   517  00FFA8  08                 	db	8
   518  00FFA9  1C                 	db	28
   519  00FFAA  2A                 	db	42
   520  00FFAB  08                 	db	8
   521  00FFAC  08                 	db	8
   522  00FFAD                     __end_of_Font5x7:
   523                           	opt stack 0
   524  00FFAD                     _dpowers:
   525                           	opt stack 0
   526  00FFAD  0001               	dw	1
   527  00FFAF  000A               	dw	10
   528  00FFB1  0064               	dw	100
   529  00FFB3  03E8               	dw	1000
   530  00FFB5  2710               	dw	10000
   531  00FFB7                     __end_of_dpowers:
   532                           	opt stack 0
   533  0000                     _ADCON0	set	4034
   534  0000                     _ADCON0bits	set	4034
   535  0000                     _ADCON1	set	4033
   536  0000                     _ADCTRIG	set	3768
   537  0000                     _ADRESH	set	4036
   538  0000                     _ADRESL	set	4035
   539  0000                     _ANCON0	set	3912
   540  0000                     _ANCON1	set	3913
   541  0000                     _CCP10CON	set	3840
   542  0000                     _CCP4CON	set	3858
   543  0000                     _CCP5CON	set	3855
   544  0000                     _CCP6CON	set	3852
   545  0000                     _CCP7CON	set	3849
   546  0000                     _CCP9CON	set	3843
   547  0000                     _CCPR10L	set	3841
   548  0000                     _CCPR4L	set	3859
   549  0000                     _CCPR5L	set	3856
   550  0000                     _CCPR6L	set	3853
   551  0000                     _CCPR7L	set	3850
   552  0000                     _CCPR9L	set	3844
   553  0000                     _CCPTMRS1	set	3921
   554  0000                     _CCPTMRS2	set	3920
   555  0000                     _INTCONbits	set	4082
   556  0000                     _LATAbits	set	3977
   557  0000                     _LATB	set	3978
   558  0000                     _LATBbits	set	3978
   559  0000                     _LATC	set	3979
   560  0000                     _LATCbits	set	3979
   561  0000                     _PIE1bits	set	3997
   562  0000                     _PIR1bits	set	3998
   563  0000                     _PR2	set	4043
   564  0000                     _SSP1BUF	set	4041
   565  0000                     _SSP1CON1	set	4038
   566  0000                     _SSP1STAT	set	4039
   567  0000                     _SSP1STATbits	set	4039
   568  0000                     _T0CON	set	4053
   569  0000                     _T1CON	set	4045
   570  0000                     _T1CONbits	set	4045
   571  0000                     _T2CON	set	4042
   572  0000                     _TMR0H	set	4055
   573  0000                     _TMR0L	set	4054
   574  0000                     _TMR1H	set	4047
   575  0000                     _TMR1L	set	4046
   576  0000                     _TRISA	set	3986
   577  0000                     _TRISAbits	set	3986
   578  0000                     _TRISB	set	3987
   579  0000                     _TRISBbits	set	3987
   580  0000                     _TRISC	set	3988
   581  0000                     _TRISCbits	set	3988
   582  00FFB7                     __stringdata:
   583                           	opt stack 0
   584  00FFB7  20                 	db	32
   585  00FFB8  37                 	db	55	;'7'
   586  00FFB9  30                 	db	48	;'0'
   587  00FFBA  30                 	db	48	;'0'
   588  00FFBB  75                 	db	117	;'u'
   589  00FFBC  73                 	db	115	;'s'
   590  00FFBD  2F                 	db	47
   591  00FFBE  64                 	db	100	;'d'
   592  00FFBF  69                 	db	105	;'i'
   593  00FFC0  76                 	db	118	;'v'
   594  00FFC1  20                 	db	32
   595  00FFC2  00                 	db	0
   596  00FFC3                     STR_19:
   597  00FFC3  20                 	db	32
   598  00FFC4  46                 	db	70	;'F'
   599  00FFC5  61                 	db	97	;'a'
   600  00FFC6  6C                 	db	108	;'l'
   601  00FFC7  6C                 	db	108	;'l'
   602  00FFC8  69                 	db	105	;'i'
   603  00FFC9  6E                 	db	110	;'n'
   604  00FFCA  67                 	db	103	;'g'
   605  00FFCB  20                 	db	32
   606  00FFCC  00                 	db	0
   607  00FFCD                     STR_18:
   608  00FFCD  20                 	db	32
   609  00FFCE  52                 	db	82	;'R'
   610  00FFCF  69                 	db	105	;'i'
   611  00FFD0  73                 	db	115	;'s'
   612  00FFD1  69                 	db	105	;'i'
   613  00FFD2  6E                 	db	110	;'n'
   614  00FFD3  67                 	db	103	;'g'
   615  00FFD4  20                 	db	32
   616  00FFD5  00                 	db	0
   617  00FFD6  20                 	db	32
   618  00FFD7  31                 	db	49	;'1'
   619  00FFD8  56                 	db	86	;'V'
   620  00FFD9  2F                 	db	47
   621  00FFDA  64                 	db	100	;'d'
   622  00FFDB  69                 	db	105	;'i'
   623  00FFDC  76                 	db	118	;'v'
   624  00FFDD  20                 	db	32
   625  00FFDE  00                 	db	0
   626  00FFDF                     STR_15:
   627  00FFDF  20                 	db	32
   628  00FFE0  4E                 	db	78	;'N'
   629  00FFE1  4F                 	db	79	;'O'
   630  00FFE2  52                 	db	82	;'R'
   631  00FFE3  4D                 	db	77	;'M'
   632  00FFE4  20                 	db	32
   633  00FFE5  00                 	db	0
   634  00FFE6                     STR_16:
   635  00FFE6  20                 	db	32
   636  00FFE7  41                 	db	65	;'A'
   637  00FFE8  55                 	db	85	;'U'
   638  00FFE9  54                 	db	84	;'T'
   639  00FFEA  4F                 	db	79	;'O'
   640  00FFEB  20                 	db	32
   641  00FFEC  00                 	db	0
   642  00FFED                     STR_6:
   643  00FFED  25                 	db	37
   644  00FFEE  64                 	db	100	;'d'
   645  00FFEF  20                 	db	32
   646  00FFF0  6D                 	db	109	;'m'
   647  00FFF1  56                 	db	86	;'V'
   648  00FFF2  00                 	db	0
   649  00FFF3  30                 	db	48	;'0'
   650  00FFF4  00                 	db	0
   651  00FFF5  31                 	db	49	;'1'
   652  00FFF6  00                 	db	0
   653  00FFF7  32                 	db	50	;'2'
   654  00FFF8  00                 	db	0
   655  00FFF9  33                 	db	51	;'3'
   656  00FFFA  00                 	db	0
   657  00FFFB  34                 	db	52	;'4'
   658  00FFFC  00                 	db	0
   659  00FFFD                     STR_7:
   660  00FFFD  3E                 	db	62	;'>'
   661  00FFFE  00                 	db	0
   662  00FFFF                     __end_of__stringdata:
   663                           	opt stack 0
   664                           
   665                           ; #config settings
   666  00FFFF  00                 	db	0	; dummy byte at the end
   667  0000                     
   668                           	psect	cinit
   669  0115B0                     __pcinit:
   670                           	opt stack 0
   671  0115B0                     start_initialization:
   672                           	opt stack 0
   673  0115B0                     __initialization:
   674                           	opt stack 0
   675                           
   676                           ; Clear objects allocated to BIGRAM (616 bytes)
   677  0115B0  EE0C  F048         	lfsr	0,__pbssBIGRAM
   678  0115B4  EE12 F068          	lfsr	1,616
   679  0115B8                     clear_0:
   680  0115B8  6AEE               	clrf	postinc0,c
   681  0115BA  50E5               	movf	postdec1,w,c
   682  0115BC  50E1               	movf	fsr1l,w,c
   683  0115BE  E1FC               	bnz	clear_0
   684  0115C0  50E2               	movf	fsr1h,w,c
   685  0115C2  E1FA               	bnz	clear_0
   686                           
   687                           ; Clear objects allocated to COMRAM (33 bytes)
   688  0115C4  EE00  F03D         	lfsr	0,__pbssCOMRAM
   689  0115C8  0E21               	movlw	33
   690  0115CA                     clear_1:
   691  0115CA  6AEE               	clrf	postinc0,c
   692  0115CC  06E8               	decf	wreg,f,c
   693  0115CE  E1FD               	bnz	clear_1
   694                           
   695                           ; Initialize objects allocated to COMRAM (2 bytes)
   696                           ; load TBLPTR registers with __pidataCOMRAM
   697  0115D0  0E7E               	movlw	low __pidataCOMRAM
   698  0115D2  6EF6               	movwf	tblptrl,c
   699  0115D4  0E16               	movlw	high __pidataCOMRAM
   700  0115D6  6EF7               	movwf	tblptrh,c
   701  0115D8  0E01               	movlw	low (__pidataCOMRAM shr (0+16))
   702  0115DA  6EF8               	movwf	tblptru,c
   703  0115DC  0009               	tblrd		*+	;fetch initializer
   704  0115DE  CFF5 F05E          	movff	tablat,__pdataCOMRAM
   705  0115E2  0009               	tblrd		*+	;fetch initializer
   706  0115E4  CFF5 F05F          	movff	tablat,__pdataCOMRAM+1
   707  0115E8                     end_of_initialization:
   708                           	opt stack 0
   709  0115E8                     __end_of__initialization:
   710                           	opt stack 0
   711  0115E8  0100               	movlb	0
   712  0115EA  EF00  F080         	goto	_main	;jump to C main() function
   713                           tblptru	equ	0xFF8
   714                           tblptrh	equ	0xFF7
   715                           tblptrl	equ	0xFF6
   716                           tablat	equ	0xFF5
   717                           postinc0	equ	0xFEE
   718                           wreg	equ	0xFE8
   719                           postdec1	equ	0xFE5
   720                           fsr1h	equ	0xFE2
   721                           fsr1l	equ	0xFE1
   722                           
   723                           	psect	bssCOMRAM
   724  00003D                     __pbssCOMRAM:
   725                           	opt stack 0
   726  00003D                     _AUTO_SAMPLE:
   727                           	opt stack 0
   728  00003D                     	ds	2
   729  00003F                     _BACK_COLOR:
   730                           	opt stack 0
   731  00003F                     	ds	2
   732  000041                     _BUTTON_SELECT:
   733                           	opt stack 0
   734  000041                     	ds	2
   735  000043                     _EDGE_SAMPLE:
   736                           	opt stack 0
   737  000043                     	ds	2
   738  000045                     _FALLING_EDGE:
   739                           	opt stack 0
   740  000045                     	ds	2
   741  000047                     _HOLD_OFF:
   742                           	opt stack 0
   743  000047                     	ds	2
   744  000049                     _INFINITE_PERSISTENCE:
   745                           	opt stack 0
   746  000049                     	ds	2
   747  00004B                     _LINE_MASK:
   748                           	opt stack 0
   749  00004B                     	ds	2
   750  00004D                     _POINT_COLOR:
   751                           	opt stack 0
   752  00004D                     	ds	2
   753  00004F                     _RISING_EDGE:
   754                           	opt stack 0
   755  00004F                     	ds	2
   756  000051                     _TIMEBASE:
   757                           	opt stack 0
   758  000051                     	ds	2
   759  000053                     _current_adc:
   760                           	opt stack 0
   761  000053                     	ds	2
   762  000055                     _sample_index:
   763                           	opt stack 0
   764  000055                     	ds	2
   765  000057                     _trigger_dir:
   766                           	opt stack 0
   767  000057                     	ds	2
   768  000059                     _HOLD_SAMPLING:
   769                           	opt stack 0
   770  000059                     	ds	1
   771  00005A                     _current_buff:
   772                           	opt stack 0
   773  00005A                     	ds	1
   774  00005B                     _delay_2s:
   775                           	opt stack 0
   776  00005B                     	ds	1
   777  00005C                     _samples_ready:
   778                           	opt stack 0
   779  00005C                     	ds	1
   780  00005D                     _saved_buff:
   781                           	opt stack 0
   782  00005D                     	ds	1
   783                           tblptru	equ	0xFF8
   784                           tblptrh	equ	0xFF7
   785                           tblptrl	equ	0xFF6
   786                           tablat	equ	0xFF5
   787                           postinc0	equ	0xFEE
   788                           wreg	equ	0xFE8
   789                           postdec1	equ	0xFE5
   790                           fsr1h	equ	0xFE2
   791                           fsr1l	equ	0xFE1
   792                           
   793                           	psect	dataCOMRAM
   794  00005E                     __pdataCOMRAM:
   795                           	opt stack 0
   796  00005E                     _MEASURE_LINE:
   797                           	opt stack 0
   798  00005E                     	ds	1
   799  00005F                     _TRIGGER_LINE:
   800                           	opt stack 0
   801  00005F                     	ds	1
   802                           tblptru	equ	0xFF8
   803                           tblptrh	equ	0xFF7
   804                           tblptrl	equ	0xFF6
   805                           tablat	equ	0xFF5
   806                           postinc0	equ	0xFEE
   807                           wreg	equ	0xFE8
   808                           postdec1	equ	0xFE5
   809                           fsr1h	equ	0xFE2
   810                           fsr1l	equ	0xFE1
   811                           
   812                           	psect	bssBIGRAM
   813  000C48                     __pbssBIGRAM:
   814                           	opt stack 0
   815  000C48                     _samples:
   816                           	opt stack 0
   817  000C48                     	ds	616
   818                           tblptru	equ	0xFF8
   819                           tblptrh	equ	0xFF7
   820                           tblptrl	equ	0xFF6
   821                           tablat	equ	0xFF5
   822                           postinc0	equ	0xFEE
   823                           wreg	equ	0xFE8
   824                           postdec1	equ	0xFE5
   825                           fsr1h	equ	0xFE2
   826                           fsr1l	equ	0xFE1
   827                           
   828                           	psect	cstackCOMRAM
   829  000001                     __pcstackCOMRAM:
   830                           	opt stack 0
   831  000001                     ?_ReadADC:
   832                           	opt stack 0
   833  000001                     ?___wmul:
   834                           	opt stack 0
   835  000001                     ?___awdiv:
   836                           	opt stack 0
   837  000001                     ___wmul@multiplier:
   838                           	opt stack 0
   839  000001                     ___awdiv@dividend:
   840                           	opt stack 0
   841                           
   842                           ; 2 bytes @ 0x0
   843  000001                     	ds	2
   844  000003                     ___wmul@multiplicand:
   845                           	opt stack 0
   846  000003                     ___awdiv@divisor:
   847                           	opt stack 0
   848                           
   849                           ; 2 bytes @ 0x2
   850  000003                     	ds	2
   851  000005                     ___awdiv@counter:
   852                           	opt stack 0
   853  000005                     ___wmul@product:
   854                           	opt stack 0
   855                           
   856                           ; 2 bytes @ 0x4
   857  000005                     	ds	1
   858  000006                     ___awdiv@sign:
   859                           	opt stack 0
   860                           
   861                           ; 1 bytes @ 0x5
   862  000006                     	ds	1
   863  000007                     ___awdiv@quotient:
   864                           	opt stack 0
   865                           
   866                           ; 2 bytes @ 0x6
   867  000007                     	ds	2
   868  000009                     ??_handle_int_adc:
   869                           
   870                           ; 0 bytes @ 0x8
   871  000009                     	ds	2
   872  00000B                     handle_int_adc@next_sample:
   873                           	opt stack 0
   874                           
   875                           ; 1 bytes @ 0xA
   876  00000B                     	ds	1
   877  00000C                     handle_int_adc@prev_sample:
   878                           	opt stack 0
   879                           
   880                           ; 1 bytes @ 0xB
   881  00000C                     	ds	1
   882  00000D                     ??_InterruptHandler:
   883                           
   884                           ; 0 bytes @ 0xC
   885  00000D                     	ds	14
   886  00001B                     usleep@ticks:
   887                           	opt stack 0
   888  00001B                     LEDBLINK@port1:
   889                           	opt stack 0
   890                           
   891                           ; 2 bytes @ 0x1A
   892  00001B                     	ds	2
   893  00001D                     ??_usleep:
   894  00001D                     LEDBLINK@port2:
   895                           	opt stack 0
   896                           
   897                           ; 2 bytes @ 0x1C
   898  00001D                     	ds	2
   899  00001F                     LEDBLINK@port3:
   900                           	opt stack 0
   901                           
   902                           ; 2 bytes @ 0x1E
   903  00001F                     	ds	1
   904  000020                     delayms@ms:
   905                           	opt stack 0
   906                           
   907                           ; 2 bytes @ 0x1F
   908  000020                     	ds	1
   909  000021                     LEDBLINK@port4:
   910                           	opt stack 0
   911                           
   912                           ; 2 bytes @ 0x20
   913  000021                     	ds	1
   914  000022                     
   915                           ; 0 bytes @ 0x21
   916  000022                     	ds	1
   917  000023                     LEDBLINK@port5:
   918                           	opt stack 0
   919                           
   920                           ; 2 bytes @ 0x22
   921  000023                     	ds	2
   922  000025                     LEDBLINK@port6:
   923                           	opt stack 0
   924                           
   925                           ; 2 bytes @ 0x24
   926  000025                     	ds	2
   927  000027                     LEDBLINK@port7:
   928                           	opt stack 0
   929                           
   930                           ; 2 bytes @ 0x26
   931  000027                     	ds	2
   932  000029                     LEDBLINK@port8:
   933                           	opt stack 0
   934                           
   935                           ; 2 bytes @ 0x28
   936  000029                     	ds	2
   937  00002B                     
   938                           ; 2 bytes @ 0x2A
   939  00002B                     	ds	2
   940  00002D                     
   941                           ; 3 bytes @ 0x2C
   942  00002D                     	ds	3
   943  000030                     main@LED:
   944                           	opt stack 0
   945                           
   946                           ; 2 bytes @ 0x2F
   947  000030                     	ds	2
   948  000032                     main@a:
   949                           	opt stack 0
   950                           
   951                           ; 2 bytes @ 0x31
   952  000032                     	ds	2
   953  000034                     main@b:
   954                           	opt stack 0
   955                           
   956                           ; 2 bytes @ 0x33
   957  000034                     	ds	2
   958  000036                     main@c:
   959                           	opt stack 0
   960                           
   961                           ; 2 bytes @ 0x35
   962  000036                     	ds	2
   963  000038                     main@d:
   964                           	opt stack 0
   965                           
   966                           ; 2 bytes @ 0x37
   967  000038                     	ds	2
   968  00003A                     main@first_sample:
   969                           	opt stack 0
   970                           
   971                           ; 1 bytes @ 0x39
   972  00003A                     	ds	1
   973  00003B                     main@led_delay:
   974                           	opt stack 0
   975                           
   976                           ; 2 bytes @ 0x3A
   977  00003B                     	ds	2
   978                           tblptru	equ	0xFF8
   979                           tblptrh	equ	0xFF7
   980                           tblptrl	equ	0xFF6
   981                           tablat	equ	0xFF5
   982                           postinc0	equ	0xFEE
   983                           wreg	equ	0xFE8
   984                           postdec1	equ	0xFE5
   985                           fsr1h	equ	0xFE2
   986                           fsr1l	equ	0xFE1
   987                           
   988 ;;
   989 ;;Main: autosize = 0, tempsize = 0, incstack = 0, save=0
   990 ;;
   991 ;; *************** function _main *****************
   992 ;; Defined at:
   993 ;;		line 26 in file "main.c"
   994 ;; Parameters:    Size  Location     Type
   995 ;;  argc            2   42[COMRAM] int 
   996 ;;  argv            3   44[COMRAM] PTR PTR unsigned char 
   997 ;; Auto vars:     Size  Location     Type
   998 ;;  led_delay       2   58[COMRAM] unsigned int 
   999 ;;  d               2   55[COMRAM] unsigned int 
  1000 ;;  c               2   53[COMRAM] unsigned int 
  1001 ;;  b               2   51[COMRAM] unsigned int 
  1002 ;;  a               2   49[COMRAM] unsigned int 
  1003 ;;  LED             2   47[COMRAM] unsigned int 
  1004 ;;  lpy             2    0        unsigned short 
  1005 ;;  first_sample    1   57[COMRAM] unsigned char 
  1006 ;; Return value:  Size  Location     Type
  1007 ;;                  2   42[COMRAM] int 
  1008 ;; Registers used:
  1009 ;;		wreg, status,2, status,0, cstack
  1010 ;; Tracked objects:
  1011 ;;		On entry : 0/0
  1012 ;;		On exit  : 0/0
  1013 ;;		Unchanged: 0/0
  1014 ;; Data sizes:     COMRAM   BANK0   BANK1   BANK2   BANK3   BANK4   BANK5   BANK6   BANK7   BANK8   BANK9  BANK10  BANK1
      +1  BANK12  BANK13  BANK14
  1015 ;;      Params:         5       0       0       0       0       0       0       0       0       0       0       0       
      +0       0       0       0
  1016 ;;      Locals:        13       0       0       0       0       0       0       0       0       0       0       0       
      +0       0       0       0
  1017 ;;      Temps:          0       0       0       0       0       0       0       0       0       0       0       0       
      +0       0       0       0
  1018 ;;      Totals:        18       0       0       0       0       0       0       0       0       0       0       0       
      +0       0       0       0
  1019 ;;Total ram usage:       18 bytes
  1020 ;; Hardware stack levels required when called:    5
  1021 ;; This function calls:
  1022 ;;		_LEDBLINK
  1023 ;;		_delayms
  1024 ;;		_timer0Init
  1025 ;;		_timer1Init
  1026 ;; This function is called by:
  1027 ;;		Startup code after reset
  1028 ;; This function uses a non-reentrant model
  1029 ;;
  1030                           
  1031                           	psect	text0
  1032  010000                     __ptext0:
  1033                           	opt stack 0
  1034  010000                     _main:
  1035                           	opt stack 26
  1036                           
  1037                           ;main.c: 28: unsigned short lpy;
  1038                           ;main.c: 29: unsigned char first_sample = 1;
  1039                           
  1040                           ;incstack = 0
  1041  010000  0E01               	movlw	1
  1042  010002  6E3A               	movwf	main@first_sample,c
  1043                           
  1044                           ;main.c: 30: unsigned int LED = 0;
  1045  010004  0E00               	movlw	0
  1046  010006  6E31               	movwf	main@LED+1,c
  1047  010008  0E00               	movlw	0
  1048  01000A  6E30               	movwf	main@LED,c
  1049                           
  1050                           ;main.c: 31: unsigned int a = 0;
  1051  01000C  0E00               	movlw	0
  1052  01000E  6E33               	movwf	main@a+1,c
  1053  010010  0E00               	movlw	0
  1054  010012  6E32               	movwf	main@a,c
  1055                           
  1056                           ;main.c: 32: unsigned int b = 1;
  1057  010014  0E00               	movlw	0
  1058  010016  6E35               	movwf	main@b+1,c
  1059  010018  0E01               	movlw	1
  1060  01001A  6E34               	movwf	main@b,c
  1061                           
  1062                           ;main.c: 33: unsigned int c = 2;
  1063  01001C  0E00               	movlw	0
  1064  01001E  6E37               	movwf	main@c+1,c
  1065  010020  0E02               	movlw	2
  1066  010022  6E36               	movwf	main@c,c
  1067                           
  1068                           ;main.c: 34: unsigned int d = 0;
  1069  010024  0E00               	movlw	0
  1070  010026  6E39               	movwf	main@d+1,c
  1071  010028  0E00               	movlw	0
  1072  01002A  6E38               	movwf	main@d,c
  1073                           
  1074                           ;main.c: 35: unsigned int led_delay = 250;
  1075  01002C  0E00               	movlw	0
  1076  01002E  6E3C               	movwf	main@led_delay+1,c
  1077  010030  0EFA               	movlw	250
  1078  010032  6E3B               	movwf	main@led_delay,c
  1079                           
  1080                           ;main.c: 44: timer0Init();
  1081  010034  EC3C  F08B         	call	_timer0Init	;wreg free
  1082                           
  1083                           ;main.c: 45: timer1Init();
  1084  010038  EC2B  F08B         	call	_timer1Init	;wreg free
  1085                           
  1086                           ;main.c: 48: LATBbits.LATB5 = 0;
  1087  01003C  9A8A               	bcf	3978,5,c	;volatile
  1088                           
  1089                           ;main.c: 50: LATCbits.LATC4 = 0;
  1090  01003E  988B               	bcf	3979,4,c	;volatile
  1091                           
  1092                           ;main.c: 51: LATCbits.LATC5 = 0;
  1093  010040  9A8B               	bcf	3979,5,c	;volatile
  1094                           
  1095                           ;main.c: 52: LATCbits.LATC6 = 0;
  1096  010042  9C8B               	bcf	3979,6,c	;volatile
  1097                           
  1098                           ;main.c: 53: LATCbits.LATC7 = 0;
  1099  010044  9E8B               	bcf	3979,7,c	;volatile
  1100                           
  1101                           ;main.c: 55: LATAbits.LATA7 = 0;
  1102  010046  9E89               	bcf	3977,7,c	;volatile
  1103                           
  1104                           ;main.c: 56: LATAbits.LATA6 = 0;
  1105  010048  9C89               	bcf	3977,6,c	;volatile
  1106                           
  1107                           ;main.c: 57: LATCbits.LATC2 = 0;
  1108  01004A  948B               	bcf	3979,2,c	;volatile
  1109                           
  1110                           ;main.c: 58: LATCbits.LATC3 = 0;
  1111  01004C  968B               	bcf	3979,3,c	;volatile
  1112                           
  1113                           ;main.c: 60: TRISBbits.TRISB5 = 0;
  1114  01004E  9A93               	bcf	3987,5,c	;volatile
  1115                           
  1116                           ;main.c: 63: TRISBbits.TRISB0 = 0;
  1117  010050  9093               	bcf	3987,0,c	;volatile
  1118                           
  1119                           ;main.c: 64: TRISBbits.TRISB1 = 0;
  1120  010052  9293               	bcf	3987,1,c	;volatile
  1121                           
  1122                           ;main.c: 66: TRISCbits.TRISC4 = 0;
  1123  010054  9894               	bcf	3988,4,c	;volatile
  1124                           
  1125                           ;main.c: 67: TRISCbits.TRISC5 = 0;
  1126  010056  9A94               	bcf	3988,5,c	;volatile
  1127                           
  1128                           ;main.c: 68: TRISCbits.TRISC6 = 0;
  1129  010058  9C94               	bcf	3988,6,c	;volatile
  1130                           
  1131                           ;main.c: 69: TRISCbits.TRISC7 = 0;
  1132  01005A  9E94               	bcf	3988,7,c	;volatile
  1133                           
  1134                           ;main.c: 71: TRISAbits.TRISA7 = 0;
  1135  01005C  9E92               	bcf	3986,7,c	;volatile
  1136                           
  1137                           ;main.c: 72: TRISAbits.TRISA6 = 0;
  1138  01005E  9C92               	bcf	3986,6,c	;volatile
  1139                           
  1140                           ;main.c: 73: TRISCbits.TRISC2 = 0;
  1141  010060  9494               	bcf	3988,2,c	;volatile
  1142                           
  1143                           ;main.c: 74: TRISCbits.TRISC3 = 0;
  1144  010062  9694               	bcf	3988,3,c	;volatile
  1145  010064                     l1777:
  1146                           
  1147                           ;main.c: 78: delayms(led_delay);
  1148  010064  C03B  F020         	movff	main@led_delay,delayms@ms
  1149  010068  C03C  F021         	movff	main@led_delay+1,delayms@ms+1
  1150  01006C  EC1B  F08B         	call	_delayms	;wreg free
  1151                           
  1152                           ;main.c: 79: LEDBLINK(0,0,0,0,0,0,0,0);
  1153  010070  0E00               	movlw	0
  1154  010072  6E1C               	movwf	LEDBLINK@port1+1,c
  1155  010074  0E00               	movlw	0
  1156  010076  6E1B               	movwf	LEDBLINK@port1,c
  1157  010078  0E00               	movlw	0
  1158  01007A  6E1E               	movwf	LEDBLINK@port2+1,c
  1159  01007C  0E00               	movlw	0
  1160  01007E  6E1D               	movwf	LEDBLINK@port2,c
  1161  010080  0E00               	movlw	0
  1162  010082  6E20               	movwf	LEDBLINK@port3+1,c
  1163  010084  0E00               	movlw	0
  1164  010086  6E1F               	movwf	LEDBLINK@port3,c
  1165  010088  0E00               	movlw	0
  1166  01008A  6E22               	movwf	LEDBLINK@port4+1,c
  1167  01008C  0E00               	movlw	0
  1168  01008E  6E21               	movwf	LEDBLINK@port4,c
  1169  010090  0E00               	movlw	0
  1170  010092  6E24               	movwf	LEDBLINK@port5+1,c
  1171  010094  0E00               	movlw	0
  1172  010096  6E23               	movwf	LEDBLINK@port5,c
  1173  010098  0E00               	movlw	0
  1174  01009A  6E26               	movwf	LEDBLINK@port6+1,c
  1175  01009C  0E00               	movlw	0
  1176  01009E  6E25               	movwf	LEDBLINK@port6,c
  1177  0100A0  0E00               	movlw	0
  1178  0100A2  6E28               	movwf	LEDBLINK@port7+1,c
  1179  0100A4  0E00               	movlw	0
  1180  0100A6  6E27               	movwf	LEDBLINK@port7,c
  1181  0100A8  0E00               	movlw	0
  1182  0100AA  6E2A               	movwf	LEDBLINK@port8+1,c
  1183  0100AC  0E00               	movlw	0
  1184  0100AE  6E29               	movwf	LEDBLINK@port8,c
  1185  0100B0  EC4A  F089         	call	_LEDBLINK	;wreg free
  1186                           
  1187                           ;main.c: 81: delayms(1);
  1188  0100B4  0E00               	movlw	0
  1189  0100B6  6E21               	movwf	delayms@ms+1,c
  1190  0100B8  0E01               	movlw	1
  1191  0100BA  6E20               	movwf	delayms@ms,c
  1192  0100BC  EC1B  F08B         	call	_delayms	;wreg free
  1193                           
  1194                           ;main.c: 82: LEDBLINK(0,2,2,2,2,2,2,1);
  1195  0100C0  0E00               	movlw	0
  1196  0100C2  6E1C               	movwf	LEDBLINK@port1+1,c
  1197  0100C4  0E00               	movlw	0
  1198  0100C6  6E1B               	movwf	LEDBLINK@port1,c
  1199  0100C8  0E00               	movlw	0
  1200  0100CA  6E1E               	movwf	LEDBLINK@port2+1,c
  1201  0100CC  0E02               	movlw	2
  1202  0100CE  6E1D               	movwf	LEDBLINK@port2,c
  1203  0100D0  0E00               	movlw	0
  1204  0100D2  6E20               	movwf	LEDBLINK@port3+1,c
  1205  0100D4  0E02               	movlw	2
  1206  0100D6  6E1F               	movwf	LEDBLINK@port3,c
  1207  0100D8  0E00               	movlw	0
  1208  0100DA  6E22               	movwf	LEDBLINK@port4+1,c
  1209  0100DC  0E02               	movlw	2
  1210  0100DE  6E21               	movwf	LEDBLINK@port4,c
  1211  0100E0  0E00               	movlw	0
  1212  0100E2  6E24               	movwf	LEDBLINK@port5+1,c
  1213  0100E4  0E02               	movlw	2
  1214  0100E6  6E23               	movwf	LEDBLINK@port5,c
  1215  0100E8  0E00               	movlw	0
  1216  0100EA  6E26               	movwf	LEDBLINK@port6+1,c
  1217  0100EC  0E02               	movlw	2
  1218  0100EE  6E25               	movwf	LEDBLINK@port6,c
  1219  0100F0  0E00               	movlw	0
  1220  0100F2  6E28               	movwf	LEDBLINK@port7+1,c
  1221  0100F4  0E02               	movlw	2
  1222  0100F6  6E27               	movwf	LEDBLINK@port7,c
  1223  0100F8  0E00               	movlw	0
  1224  0100FA  6E2A               	movwf	LEDBLINK@port8+1,c
  1225  0100FC  0E01               	movlw	1
  1226  0100FE  6E29               	movwf	LEDBLINK@port8,c
  1227  010100  EC4A  F089         	call	_LEDBLINK	;wreg free
  1228                           
  1229                           ;main.c: 83: delayms(led_delay);
  1230  010104  C03B  F020         	movff	main@led_delay,delayms@ms
  1231  010108  C03C  F021         	movff	main@led_delay+1,delayms@ms+1
  1232  01010C  EC1B  F08B         	call	_delayms	;wreg free
  1233                           
  1234                           ;main.c: 84: LEDBLINK(0,2,2,2,2,2,1,2);
  1235  010110  0E00               	movlw	0
  1236  010112  6E1C               	movwf	LEDBLINK@port1+1,c
  1237  010114  0E00               	movlw	0
  1238  010116  6E1B               	movwf	LEDBLINK@port1,c
  1239  010118  0E00               	movlw	0
  1240  01011A  6E1E               	movwf	LEDBLINK@port2+1,c
  1241  01011C  0E02               	movlw	2
  1242  01011E  6E1D               	movwf	LEDBLINK@port2,c
  1243  010120  0E00               	movlw	0
  1244  010122  6E20               	movwf	LEDBLINK@port3+1,c
  1245  010124  0E02               	movlw	2
  1246  010126  6E1F               	movwf	LEDBLINK@port3,c
  1247  010128  0E00               	movlw	0
  1248  01012A  6E22               	movwf	LEDBLINK@port4+1,c
  1249  01012C  0E02               	movlw	2
  1250  01012E  6E21               	movwf	LEDBLINK@port4,c
  1251  010130  0E00               	movlw	0
  1252  010132  6E24               	movwf	LEDBLINK@port5+1,c
  1253  010134  0E02               	movlw	2
  1254  010136  6E23               	movwf	LEDBLINK@port5,c
  1255  010138  0E00               	movlw	0
  1256  01013A  6E26               	movwf	LEDBLINK@port6+1,c
  1257  01013C  0E02               	movlw	2
  1258  01013E  6E25               	movwf	LEDBLINK@port6,c
  1259  010140  0E00               	movlw	0
  1260  010142  6E28               	movwf	LEDBLINK@port7+1,c
  1261  010144  0E01               	movlw	1
  1262  010146  6E27               	movwf	LEDBLINK@port7,c
  1263  010148  0E00               	movlw	0
  1264  01014A  6E2A               	movwf	LEDBLINK@port8+1,c
  1265  01014C  0E02               	movlw	2
  1266  01014E  6E29               	movwf	LEDBLINK@port8,c
  1267  010150  EC4A  F089         	call	_LEDBLINK	;wreg free
  1268                           
  1269                           ;main.c: 85: delayms(led_delay);
  1270  010154  C03B  F020         	movff	main@led_delay,delayms@ms
  1271  010158  C03C  F021         	movff	main@led_delay+1,delayms@ms+1
  1272  01015C  EC1B  F08B         	call	_delayms	;wreg free
  1273                           
  1274                           ;main.c: 86: LEDBLINK(0,2,2,2,2,1,2,2);
  1275  010160  0E00               	movlw	0
  1276  010162  6E1C               	movwf	LEDBLINK@port1+1,c
  1277  010164  0E00               	movlw	0
  1278  010166  6E1B               	movwf	LEDBLINK@port1,c
  1279  010168  0E00               	movlw	0
  1280  01016A  6E1E               	movwf	LEDBLINK@port2+1,c
  1281  01016C  0E02               	movlw	2
  1282  01016E  6E1D               	movwf	LEDBLINK@port2,c
  1283  010170  0E00               	movlw	0
  1284  010172  6E20               	movwf	LEDBLINK@port3+1,c
  1285  010174  0E02               	movlw	2
  1286  010176  6E1F               	movwf	LEDBLINK@port3,c
  1287  010178  0E00               	movlw	0
  1288  01017A  6E22               	movwf	LEDBLINK@port4+1,c
  1289  01017C  0E02               	movlw	2
  1290  01017E  6E21               	movwf	LEDBLINK@port4,c
  1291  010180  0E00               	movlw	0
  1292  010182  6E24               	movwf	LEDBLINK@port5+1,c
  1293  010184  0E02               	movlw	2
  1294  010186  6E23               	movwf	LEDBLINK@port5,c
  1295  010188  0E00               	movlw	0
  1296  01018A  6E26               	movwf	LEDBLINK@port6+1,c
  1297  01018C  0E01               	movlw	1
  1298  01018E  6E25               	movwf	LEDBLINK@port6,c
  1299  010190  0E00               	movlw	0
  1300  010192  6E28               	movwf	LEDBLINK@port7+1,c
  1301  010194  0E02               	movlw	2
  1302  010196  6E27               	movwf	LEDBLINK@port7,c
  1303  010198  0E00               	movlw	0
  1304  01019A  6E2A               	movwf	LEDBLINK@port8+1,c
  1305  01019C  0E02               	movlw	2
  1306  01019E  6E29               	movwf	LEDBLINK@port8,c
  1307  0101A0  EC4A  F089         	call	_LEDBLINK	;wreg free
  1308                           
  1309                           ;main.c: 87: delayms(led_delay);
  1310  0101A4  C03B  F020         	movff	main@led_delay,delayms@ms
  1311  0101A8  C03C  F021         	movff	main@led_delay+1,delayms@ms+1
  1312  0101AC  EC1B  F08B         	call	_delayms	;wreg free
  1313                           
  1314                           ;main.c: 88: LEDBLINK(0,2,2,2,1,2,2,2);
  1315  0101B0  0E00               	movlw	0
  1316  0101B2  6E1C               	movwf	LEDBLINK@port1+1,c
  1317  0101B4  0E00               	movlw	0
  1318  0101B6  6E1B               	movwf	LEDBLINK@port1,c
  1319  0101B8  0E00               	movlw	0
  1320  0101BA  6E1E               	movwf	LEDBLINK@port2+1,c
  1321  0101BC  0E02               	movlw	2
  1322  0101BE  6E1D               	movwf	LEDBLINK@port2,c
  1323  0101C0  0E00               	movlw	0
  1324  0101C2  6E20               	movwf	LEDBLINK@port3+1,c
  1325  0101C4  0E02               	movlw	2
  1326  0101C6  6E1F               	movwf	LEDBLINK@port3,c
  1327  0101C8  0E00               	movlw	0
  1328  0101CA  6E22               	movwf	LEDBLINK@port4+1,c
  1329  0101CC  0E02               	movlw	2
  1330  0101CE  6E21               	movwf	LEDBLINK@port4,c
  1331  0101D0  0E00               	movlw	0
  1332  0101D2  6E24               	movwf	LEDBLINK@port5+1,c
  1333  0101D4  0E01               	movlw	1
  1334  0101D6  6E23               	movwf	LEDBLINK@port5,c
  1335  0101D8  0E00               	movlw	0
  1336  0101DA  6E26               	movwf	LEDBLINK@port6+1,c
  1337  0101DC  0E02               	movlw	2
  1338  0101DE  6E25               	movwf	LEDBLINK@port6,c
  1339  0101E0  0E00               	movlw	0
  1340  0101E2  6E28               	movwf	LEDBLINK@port7+1,c
  1341  0101E4  0E02               	movlw	2
  1342  0101E6  6E27               	movwf	LEDBLINK@port7,c
  1343  0101E8  0E00               	movlw	0
  1344  0101EA  6E2A               	movwf	LEDBLINK@port8+1,c
  1345  0101EC  0E02               	movlw	2
  1346  0101EE  6E29               	movwf	LEDBLINK@port8,c
  1347  0101F0  EC4A  F089         	call	_LEDBLINK	;wreg free
  1348                           
  1349                           ;main.c: 89: delayms(led_delay);
  1350  0101F4  C03B  F020         	movff	main@led_delay,delayms@ms
  1351  0101F8  C03C  F021         	movff	main@led_delay+1,delayms@ms+1
  1352  0101FC  EC1B  F08B         	call	_delayms	;wreg free
  1353                           
  1354                           ;main.c: 90: LEDBLINK(0,2,2,1,2,2,2,2);
  1355  010200  0E00               	movlw	0
  1356  010202  6E1C               	movwf	LEDBLINK@port1+1,c
  1357  010204  0E00               	movlw	0
  1358  010206  6E1B               	movwf	LEDBLINK@port1,c
  1359  010208  0E00               	movlw	0
  1360  01020A  6E1E               	movwf	LEDBLINK@port2+1,c
  1361  01020C  0E02               	movlw	2
  1362  01020E  6E1D               	movwf	LEDBLINK@port2,c
  1363  010210  0E00               	movlw	0
  1364  010212  6E20               	movwf	LEDBLINK@port3+1,c
  1365  010214  0E02               	movlw	2
  1366  010216  6E1F               	movwf	LEDBLINK@port3,c
  1367  010218  0E00               	movlw	0
  1368  01021A  6E22               	movwf	LEDBLINK@port4+1,c
  1369  01021C  0E01               	movlw	1
  1370  01021E  6E21               	movwf	LEDBLINK@port4,c
  1371  010220  0E00               	movlw	0
  1372  010222  6E24               	movwf	LEDBLINK@port5+1,c
  1373  010224  0E02               	movlw	2
  1374  010226  6E23               	movwf	LEDBLINK@port5,c
  1375  010228  0E00               	movlw	0
  1376  01022A  6E26               	movwf	LEDBLINK@port6+1,c
  1377  01022C  0E02               	movlw	2
  1378  01022E  6E25               	movwf	LEDBLINK@port6,c
  1379  010230  0E00               	movlw	0
  1380  010232  6E28               	movwf	LEDBLINK@port7+1,c
  1381  010234  0E02               	movlw	2
  1382  010236  6E27               	movwf	LEDBLINK@port7,c
  1383  010238  0E00               	movlw	0
  1384  01023A  6E2A               	movwf	LEDBLINK@port8+1,c
  1385  01023C  0E02               	movlw	2
  1386  01023E  6E29               	movwf	LEDBLINK@port8,c
  1387  010240  EC4A  F089         	call	_LEDBLINK	;wreg free
  1388                           
  1389                           ;main.c: 91: delayms(led_delay);
  1390  010244  C03B  F020         	movff	main@led_delay,delayms@ms
  1391  010248  C03C  F021         	movff	main@led_delay+1,delayms@ms+1
  1392  01024C  EC1B  F08B         	call	_delayms	;wreg free
  1393                           
  1394                           ;main.c: 92: LEDBLINK(0,2,1,2,2,2,2,2);
  1395  010250  0E00               	movlw	0
  1396  010252  6E1C               	movwf	LEDBLINK@port1+1,c
  1397  010254  0E00               	movlw	0
  1398  010256  6E1B               	movwf	LEDBLINK@port1,c
  1399  010258  0E00               	movlw	0
  1400  01025A  6E1E               	movwf	LEDBLINK@port2+1,c
  1401  01025C  0E02               	movlw	2
  1402  01025E  6E1D               	movwf	LEDBLINK@port2,c
  1403  010260  0E00               	movlw	0
  1404  010262  6E20               	movwf	LEDBLINK@port3+1,c
  1405  010264  0E01               	movlw	1
  1406  010266  6E1F               	movwf	LEDBLINK@port3,c
  1407  010268  0E00               	movlw	0
  1408  01026A  6E22               	movwf	LEDBLINK@port4+1,c
  1409  01026C  0E02               	movlw	2
  1410  01026E  6E21               	movwf	LEDBLINK@port4,c
  1411  010270  0E00               	movlw	0
  1412  010272  6E24               	movwf	LEDBLINK@port5+1,c
  1413  010274  0E02               	movlw	2
  1414  010276  6E23               	movwf	LEDBLINK@port5,c
  1415  010278  0E00               	movlw	0
  1416  01027A  6E26               	movwf	LEDBLINK@port6+1,c
  1417  01027C  0E02               	movlw	2
  1418  01027E  6E25               	movwf	LEDBLINK@port6,c
  1419  010280  0E00               	movlw	0
  1420  010282  6E28               	movwf	LEDBLINK@port7+1,c
  1421  010284  0E02               	movlw	2
  1422  010286  6E27               	movwf	LEDBLINK@port7,c
  1423  010288  0E00               	movlw	0
  1424  01028A  6E2A               	movwf	LEDBLINK@port8+1,c
  1425  01028C  0E02               	movlw	2
  1426  01028E  6E29               	movwf	LEDBLINK@port8,c
  1427  010290  EC4A  F089         	call	_LEDBLINK	;wreg free
  1428                           
  1429                           ;main.c: 93: delayms(led_delay);
  1430  010294  C03B  F020         	movff	main@led_delay,delayms@ms
  1431  010298  C03C  F021         	movff	main@led_delay+1,delayms@ms+1
  1432  01029C  EC1B  F08B         	call	_delayms	;wreg free
  1433                           
  1434                           ;main.c: 94: LEDBLINK(0,1,2,2,2,2,2,2);
  1435  0102A0  0E00               	movlw	0
  1436  0102A2  6E1C               	movwf	LEDBLINK@port1+1,c
  1437  0102A4  0E00               	movlw	0
  1438  0102A6  6E1B               	movwf	LEDBLINK@port1,c
  1439  0102A8  0E00               	movlw	0
  1440  0102AA  6E1E               	movwf	LEDBLINK@port2+1,c
  1441  0102AC  0E01               	movlw	1
  1442  0102AE  6E1D               	movwf	LEDBLINK@port2,c
  1443  0102B0  0E00               	movlw	0
  1444  0102B2  6E20               	movwf	LEDBLINK@port3+1,c
  1445  0102B4  0E02               	movlw	2
  1446  0102B6  6E1F               	movwf	LEDBLINK@port3,c
  1447  0102B8  0E00               	movlw	0
  1448  0102BA  6E22               	movwf	LEDBLINK@port4+1,c
  1449  0102BC  0E02               	movlw	2
  1450  0102BE  6E21               	movwf	LEDBLINK@port4,c
  1451  0102C0  0E00               	movlw	0
  1452  0102C2  6E24               	movwf	LEDBLINK@port5+1,c
  1453  0102C4  0E02               	movlw	2
  1454  0102C6  6E23               	movwf	LEDBLINK@port5,c
  1455  0102C8  0E00               	movlw	0
  1456  0102CA  6E26               	movwf	LEDBLINK@port6+1,c
  1457  0102CC  0E02               	movlw	2
  1458  0102CE  6E25               	movwf	LEDBLINK@port6,c
  1459  0102D0  0E00               	movlw	0
  1460  0102D2  6E28               	movwf	LEDBLINK@port7+1,c
  1461  0102D4  0E02               	movlw	2
  1462  0102D6  6E27               	movwf	LEDBLINK@port7,c
  1463  0102D8  0E00               	movlw	0
  1464  0102DA  6E2A               	movwf	LEDBLINK@port8+1,c
  1465  0102DC  0E02               	movlw	2
  1466  0102DE  6E29               	movwf	LEDBLINK@port8,c
  1467  0102E0  EC4A  F089         	call	_LEDBLINK	;wreg free
  1468                           
  1469                           ;main.c: 96: delayms(led_delay);
  1470  0102E4  C03B  F020         	movff	main@led_delay,delayms@ms
  1471  0102E8  C03C  F021         	movff	main@led_delay+1,delayms@ms+1
  1472  0102EC  EC1B  F08B         	call	_delayms	;wreg free
  1473                           
  1474                           ;main.c: 97: LEDBLINK(2,0,2,2,2,2,2,1);
  1475  0102F0  0E00               	movlw	0
  1476  0102F2  6E1C               	movwf	LEDBLINK@port1+1,c
  1477  0102F4  0E02               	movlw	2
  1478  0102F6  6E1B               	movwf	LEDBLINK@port1,c
  1479  0102F8  0E00               	movlw	0
  1480  0102FA  6E1E               	movwf	LEDBLINK@port2+1,c
  1481  0102FC  0E00               	movlw	0
  1482  0102FE  6E1D               	movwf	LEDBLINK@port2,c
  1483  010300  0E00               	movlw	0
  1484  010302  6E20               	movwf	LEDBLINK@port3+1,c
  1485  010304  0E02               	movlw	2
  1486  010306  6E1F               	movwf	LEDBLINK@port3,c
  1487  010308  0E00               	movlw	0
  1488  01030A  6E22               	movwf	LEDBLINK@port4+1,c
  1489  01030C  0E02               	movlw	2
  1490  01030E  6E21               	movwf	LEDBLINK@port4,c
  1491  010310  0E00               	movlw	0
  1492  010312  6E24               	movwf	LEDBLINK@port5+1,c
  1493  010314  0E02               	movlw	2
  1494  010316  6E23               	movwf	LEDBLINK@port5,c
  1495  010318  0E00               	movlw	0
  1496  01031A  6E26               	movwf	LEDBLINK@port6+1,c
  1497  01031C  0E02               	movlw	2
  1498  01031E  6E25               	movwf	LEDBLINK@port6,c
  1499  010320  0E00               	movlw	0
  1500  010322  6E28               	movwf	LEDBLINK@port7+1,c
  1501  010324  0E02               	movlw	2
  1502  010326  6E27               	movwf	LEDBLINK@port7,c
  1503  010328  0E00               	movlw	0
  1504  01032A  6E2A               	movwf	LEDBLINK@port8+1,c
  1505  01032C  0E01               	movlw	1
  1506  01032E  6E29               	movwf	LEDBLINK@port8,c
  1507  010330  EC4A  F089         	call	_LEDBLINK	;wreg free
  1508                           
  1509                           ;main.c: 98: delayms(led_delay);
  1510  010334  C03B  F020         	movff	main@led_delay,delayms@ms
  1511  010338  C03C  F021         	movff	main@led_delay+1,delayms@ms+1
  1512  01033C  EC1B  F08B         	call	_delayms	;wreg free
  1513                           
  1514                           ;main.c: 99: LEDBLINK(2,0,2,2,2,2,1,2);
  1515  010340  0E00               	movlw	0
  1516  010342  6E1C               	movwf	LEDBLINK@port1+1,c
  1517  010344  0E02               	movlw	2
  1518  010346  6E1B               	movwf	LEDBLINK@port1,c
  1519  010348  0E00               	movlw	0
  1520  01034A  6E1E               	movwf	LEDBLINK@port2+1,c
  1521  01034C  0E00               	movlw	0
  1522  01034E  6E1D               	movwf	LEDBLINK@port2,c
  1523  010350  0E00               	movlw	0
  1524  010352  6E20               	movwf	LEDBLINK@port3+1,c
  1525  010354  0E02               	movlw	2
  1526  010356  6E1F               	movwf	LEDBLINK@port3,c
  1527  010358  0E00               	movlw	0
  1528  01035A  6E22               	movwf	LEDBLINK@port4+1,c
  1529  01035C  0E02               	movlw	2
  1530  01035E  6E21               	movwf	LEDBLINK@port4,c
  1531  010360  0E00               	movlw	0
  1532  010362  6E24               	movwf	LEDBLINK@port5+1,c
  1533  010364  0E02               	movlw	2
  1534  010366  6E23               	movwf	LEDBLINK@port5,c
  1535  010368  0E00               	movlw	0
  1536  01036A  6E26               	movwf	LEDBLINK@port6+1,c
  1537  01036C  0E02               	movlw	2
  1538  01036E  6E25               	movwf	LEDBLINK@port6,c
  1539  010370  0E00               	movlw	0
  1540  010372  6E28               	movwf	LEDBLINK@port7+1,c
  1541  010374  0E01               	movlw	1
  1542  010376  6E27               	movwf	LEDBLINK@port7,c
  1543  010378  0E00               	movlw	0
  1544  01037A  6E2A               	movwf	LEDBLINK@port8+1,c
  1545  01037C  0E02               	movlw	2
  1546  01037E  6E29               	movwf	LEDBLINK@port8,c
  1547  010380  EC4A  F089         	call	_LEDBLINK	;wreg free
  1548                           
  1549                           ;main.c: 100: delayms(led_delay);
  1550  010384  C03B  F020         	movff	main@led_delay,delayms@ms
  1551  010388  C03C  F021         	movff	main@led_delay+1,delayms@ms+1
  1552  01038C  EC1B  F08B         	call	_delayms	;wreg free
  1553                           
  1554                           ;main.c: 101: LEDBLINK(2,0,2,2,2,1,2,2);
  1555  010390  0E00               	movlw	0
  1556  010392  6E1C               	movwf	LEDBLINK@port1+1,c
  1557  010394  0E02               	movlw	2
  1558  010396  6E1B               	movwf	LEDBLINK@port1,c
  1559  010398  0E00               	movlw	0
  1560  01039A  6E1E               	movwf	LEDBLINK@port2+1,c
  1561  01039C  0E00               	movlw	0
  1562  01039E  6E1D               	movwf	LEDBLINK@port2,c
  1563  0103A0  0E00               	movlw	0
  1564  0103A2  6E20               	movwf	LEDBLINK@port3+1,c
  1565  0103A4  0E02               	movlw	2
  1566  0103A6  6E1F               	movwf	LEDBLINK@port3,c
  1567  0103A8  0E00               	movlw	0
  1568  0103AA  6E22               	movwf	LEDBLINK@port4+1,c
  1569  0103AC  0E02               	movlw	2
  1570  0103AE  6E21               	movwf	LEDBLINK@port4,c
  1571  0103B0  0E00               	movlw	0
  1572  0103B2  6E24               	movwf	LEDBLINK@port5+1,c
  1573  0103B4  0E02               	movlw	2
  1574  0103B6  6E23               	movwf	LEDBLINK@port5,c
  1575  0103B8  0E00               	movlw	0
  1576  0103BA  6E26               	movwf	LEDBLINK@port6+1,c
  1577  0103BC  0E01               	movlw	1
  1578  0103BE  6E25               	movwf	LEDBLINK@port6,c
  1579  0103C0  0E00               	movlw	0
  1580  0103C2  6E28               	movwf	LEDBLINK@port7+1,c
  1581  0103C4  0E02               	movlw	2
  1582  0103C6  6E27               	movwf	LEDBLINK@port7,c
  1583  0103C8  0E00               	movlw	0
  1584  0103CA  6E2A               	movwf	LEDBLINK@port8+1,c
  1585  0103CC  0E02               	movlw	2
  1586  0103CE  6E29               	movwf	LEDBLINK@port8,c
  1587  0103D0  EC4A  F089         	call	_LEDBLINK	;wreg free
  1588                           
  1589                           ;main.c: 102: delayms(led_delay);
  1590  0103D4  C03B  F020         	movff	main@led_delay,delayms@ms
  1591  0103D8  C03C  F021         	movff	main@led_delay+1,delayms@ms+1
  1592  0103DC  EC1B  F08B         	call	_delayms	;wreg free
  1593                           
  1594                           ;main.c: 103: LEDBLINK(2,0,2,2,1,2,2,2);
  1595  0103E0  0E00               	movlw	0
  1596  0103E2  6E1C               	movwf	LEDBLINK@port1+1,c
  1597  0103E4  0E02               	movlw	2
  1598  0103E6  6E1B               	movwf	LEDBLINK@port1,c
  1599  0103E8  0E00               	movlw	0
  1600  0103EA  6E1E               	movwf	LEDBLINK@port2+1,c
  1601  0103EC  0E00               	movlw	0
  1602  0103EE  6E1D               	movwf	LEDBLINK@port2,c
  1603  0103F0  0E00               	movlw	0
  1604  0103F2  6E20               	movwf	LEDBLINK@port3+1,c
  1605  0103F4  0E02               	movlw	2
  1606  0103F6  6E1F               	movwf	LEDBLINK@port3,c
  1607  0103F8  0E00               	movlw	0
  1608  0103FA  6E22               	movwf	LEDBLINK@port4+1,c
  1609  0103FC  0E02               	movlw	2
  1610  0103FE  6E21               	movwf	LEDBLINK@port4,c
  1611  010400  0E00               	movlw	0
  1612  010402  6E24               	movwf	LEDBLINK@port5+1,c
  1613  010404  0E01               	movlw	1
  1614  010406  6E23               	movwf	LEDBLINK@port5,c
  1615  010408  0E00               	movlw	0
  1616  01040A  6E26               	movwf	LEDBLINK@port6+1,c
  1617  01040C  0E02               	movlw	2
  1618  01040E  6E25               	movwf	LEDBLINK@port6,c
  1619  010410  0E00               	movlw	0
  1620  010412  6E28               	movwf	LEDBLINK@port7+1,c
  1621  010414  0E02               	movlw	2
  1622  010416  6E27               	movwf	LEDBLINK@port7,c
  1623  010418  0E00               	movlw	0
  1624  01041A  6E2A               	movwf	LEDBLINK@port8+1,c
  1625  01041C  0E02               	movlw	2
  1626  01041E  6E29               	movwf	LEDBLINK@port8,c
  1627  010420  EC4A  F089         	call	_LEDBLINK	;wreg free
  1628                           
  1629                           ;main.c: 104: delayms(led_delay);
  1630  010424  C03B  F020         	movff	main@led_delay,delayms@ms
  1631  010428  C03C  F021         	movff	main@led_delay+1,delayms@ms+1
  1632  01042C  EC1B  F08B         	call	_delayms	;wreg free
  1633                           
  1634                           ;main.c: 105: LEDBLINK(2,0,2,1,2,2,2,2);
  1635  010430  0E00               	movlw	0
  1636  010432  6E1C               	movwf	LEDBLINK@port1+1,c
  1637  010434  0E02               	movlw	2
  1638  010436  6E1B               	movwf	LEDBLINK@port1,c
  1639  010438  0E00               	movlw	0
  1640  01043A  6E1E               	movwf	LEDBLINK@port2+1,c
  1641  01043C  0E00               	movlw	0
  1642  01043E  6E1D               	movwf	LEDBLINK@port2,c
  1643  010440  0E00               	movlw	0
  1644  010442  6E20               	movwf	LEDBLINK@port3+1,c
  1645  010444  0E02               	movlw	2
  1646  010446  6E1F               	movwf	LEDBLINK@port3,c
  1647  010448  0E00               	movlw	0
  1648  01044A  6E22               	movwf	LEDBLINK@port4+1,c
  1649  01044C  0E01               	movlw	1
  1650  01044E  6E21               	movwf	LEDBLINK@port4,c
  1651  010450  0E00               	movlw	0
  1652  010452  6E24               	movwf	LEDBLINK@port5+1,c
  1653  010454  0E02               	movlw	2
  1654  010456  6E23               	movwf	LEDBLINK@port5,c
  1655  010458  0E00               	movlw	0
  1656  01045A  6E26               	movwf	LEDBLINK@port6+1,c
  1657  01045C  0E02               	movlw	2
  1658  01045E  6E25               	movwf	LEDBLINK@port6,c
  1659  010460  0E00               	movlw	0
  1660  010462  6E28               	movwf	LEDBLINK@port7+1,c
  1661  010464  0E02               	movlw	2
  1662  010466  6E27               	movwf	LEDBLINK@port7,c
  1663  010468  0E00               	movlw	0
  1664  01046A  6E2A               	movwf	LEDBLINK@port8+1,c
  1665  01046C  0E02               	movlw	2
  1666  01046E  6E29               	movwf	LEDBLINK@port8,c
  1667  010470  EC4A  F089         	call	_LEDBLINK	;wreg free
  1668                           
  1669                           ;main.c: 106: delayms(led_delay);
  1670  010474  C03B  F020         	movff	main@led_delay,delayms@ms
  1671  010478  C03C  F021         	movff	main@led_delay+1,delayms@ms+1
  1672  01047C  EC1B  F08B         	call	_delayms	;wreg free
  1673                           
  1674                           ;main.c: 107: LEDBLINK(2,0,1,2,2,2,2,2);
  1675  010480  0E00               	movlw	0
  1676  010482  6E1C               	movwf	LEDBLINK@port1+1,c
  1677  010484  0E02               	movlw	2
  1678  010486  6E1B               	movwf	LEDBLINK@port1,c
  1679  010488  0E00               	movlw	0
  1680  01048A  6E1E               	movwf	LEDBLINK@port2+1,c
  1681  01048C  0E00               	movlw	0
  1682  01048E  6E1D               	movwf	LEDBLINK@port2,c
  1683  010490  0E00               	movlw	0
  1684  010492  6E20               	movwf	LEDBLINK@port3+1,c
  1685  010494  0E01               	movlw	1
  1686  010496  6E1F               	movwf	LEDBLINK@port3,c
  1687  010498  0E00               	movlw	0
  1688  01049A  6E22               	movwf	LEDBLINK@port4+1,c
  1689  01049C  0E02               	movlw	2
  1690  01049E  6E21               	movwf	LEDBLINK@port4,c
  1691  0104A0  0E00               	movlw	0
  1692  0104A2  6E24               	movwf	LEDBLINK@port5+1,c
  1693  0104A4  0E02               	movlw	2
  1694  0104A6  6E23               	movwf	LEDBLINK@port5,c
  1695  0104A8  0E00               	movlw	0
  1696  0104AA  6E26               	movwf	LEDBLINK@port6+1,c
  1697  0104AC  0E02               	movlw	2
  1698  0104AE  6E25               	movwf	LEDBLINK@port6,c
  1699  0104B0  0E00               	movlw	0
  1700  0104B2  6E28               	movwf	LEDBLINK@port7+1,c
  1701  0104B4  0E02               	movlw	2
  1702  0104B6  6E27               	movwf	LEDBLINK@port7,c
  1703  0104B8  0E00               	movlw	0
  1704  0104BA  6E2A               	movwf	LEDBLINK@port8+1,c
  1705  0104BC  0E02               	movlw	2
  1706  0104BE  6E29               	movwf	LEDBLINK@port8,c
  1707  0104C0  EC4A  F089         	call	_LEDBLINK	;wreg free
  1708                           
  1709                           ;main.c: 108: delayms(led_delay);
  1710  0104C4  C03B  F020         	movff	main@led_delay,delayms@ms
  1711  0104C8  C03C  F021         	movff	main@led_delay+1,delayms@ms+1
  1712  0104CC  EC1B  F08B         	call	_delayms	;wreg free
  1713                           
  1714                           ;main.c: 109: LEDBLINK(1,0,2,2,2,2,2,2);
  1715  0104D0  0E00               	movlw	0
  1716  0104D2  6E1C               	movwf	LEDBLINK@port1+1,c
  1717  0104D4  0E01               	movlw	1
  1718  0104D6  6E1B               	movwf	LEDBLINK@port1,c
  1719  0104D8  0E00               	movlw	0
  1720  0104DA  6E1E               	movwf	LEDBLINK@port2+1,c
  1721  0104DC  0E00               	movlw	0
  1722  0104DE  6E1D               	movwf	LEDBLINK@port2,c
  1723  0104E0  0E00               	movlw	0
  1724  0104E2  6E20               	movwf	LEDBLINK@port3+1,c
  1725  0104E4  0E02               	movlw	2
  1726  0104E6  6E1F               	movwf	LEDBLINK@port3,c
  1727  0104E8  0E00               	movlw	0
  1728  0104EA  6E22               	movwf	LEDBLINK@port4+1,c
  1729  0104EC  0E02               	movlw	2
  1730  0104EE  6E21               	movwf	LEDBLINK@port4,c
  1731  0104F0  0E00               	movlw	0
  1732  0104F2  6E24               	movwf	LEDBLINK@port5+1,c
  1733  0104F4  0E02               	movlw	2
  1734  0104F6  6E23               	movwf	LEDBLINK@port5,c
  1735  0104F8  0E00               	movlw	0
  1736  0104FA  6E26               	movwf	LEDBLINK@port6+1,c
  1737  0104FC  0E02               	movlw	2
  1738  0104FE  6E25               	movwf	LEDBLINK@port6,c
  1739  010500  0E00               	movlw	0
  1740  010502  6E28               	movwf	LEDBLINK@port7+1,c
  1741  010504  0E02               	movlw	2
  1742  010506  6E27               	movwf	LEDBLINK@port7,c
  1743  010508  0E00               	movlw	0
  1744  01050A  6E2A               	movwf	LEDBLINK@port8+1,c
  1745  01050C  0E02               	movlw	2
  1746  01050E  6E29               	movwf	LEDBLINK@port8,c
  1747  010510  EC4A  F089         	call	_LEDBLINK	;wreg free
  1748                           
  1749                           ;main.c: 110: delayms(led_delay);
  1750  010514  C03B  F020         	movff	main@led_delay,delayms@ms
  1751  010518  C03C  F021         	movff	main@led_delay+1,delayms@ms+1
  1752  01051C  EC1B  F08B         	call	_delayms	;wreg free
  1753                           
  1754                           ;main.c: 112: LEDBLINK(2,2,0,2,2,2,2,1);
  1755  010520  0E00               	movlw	0
  1756  010522  6E1C               	movwf	LEDBLINK@port1+1,c
  1757  010524  0E02               	movlw	2
  1758  010526  6E1B               	movwf	LEDBLINK@port1,c
  1759  010528  0E00               	movlw	0
  1760  01052A  6E1E               	movwf	LEDBLINK@port2+1,c
  1761  01052C  0E02               	movlw	2
  1762  01052E  6E1D               	movwf	LEDBLINK@port2,c
  1763  010530  0E00               	movlw	0
  1764  010532  6E20               	movwf	LEDBLINK@port3+1,c
  1765  010534  0E00               	movlw	0
  1766  010536  6E1F               	movwf	LEDBLINK@port3,c
  1767  010538  0E00               	movlw	0
  1768  01053A  6E22               	movwf	LEDBLINK@port4+1,c
  1769  01053C  0E02               	movlw	2
  1770  01053E  6E21               	movwf	LEDBLINK@port4,c
  1771  010540  0E00               	movlw	0
  1772  010542  6E24               	movwf	LEDBLINK@port5+1,c
  1773  010544  0E02               	movlw	2
  1774  010546  6E23               	movwf	LEDBLINK@port5,c
  1775  010548  0E00               	movlw	0
  1776  01054A  6E26               	movwf	LEDBLINK@port6+1,c
  1777  01054C  0E02               	movlw	2
  1778  01054E  6E25               	movwf	LEDBLINK@port6,c
  1779  010550  0E00               	movlw	0
  1780  010552  6E28               	movwf	LEDBLINK@port7+1,c
  1781  010554  0E02               	movlw	2
  1782  010556  6E27               	movwf	LEDBLINK@port7,c
  1783  010558  0E00               	movlw	0
  1784  01055A  6E2A               	movwf	LEDBLINK@port8+1,c
  1785  01055C  0E01               	movlw	1
  1786  01055E  6E29               	movwf	LEDBLINK@port8,c
  1787  010560  EC4A  F089         	call	_LEDBLINK	;wreg free
  1788                           
  1789                           ;main.c: 113: delayms(led_delay);
  1790  010564  C03B  F020         	movff	main@led_delay,delayms@ms
  1791  010568  C03C  F021         	movff	main@led_delay+1,delayms@ms+1
  1792  01056C  EC1B  F08B         	call	_delayms	;wreg free
  1793                           
  1794                           ;main.c: 114: LEDBLINK(2,2,0,2,2,2,1,2);
  1795  010570  0E00               	movlw	0
  1796  010572  6E1C               	movwf	LEDBLINK@port1+1,c
  1797  010574  0E02               	movlw	2
  1798  010576  6E1B               	movwf	LEDBLINK@port1,c
  1799  010578  0E00               	movlw	0
  1800  01057A  6E1E               	movwf	LEDBLINK@port2+1,c
  1801  01057C  0E02               	movlw	2
  1802  01057E  6E1D               	movwf	LEDBLINK@port2,c
  1803  010580  0E00               	movlw	0
  1804  010582  6E20               	movwf	LEDBLINK@port3+1,c
  1805  010584  0E00               	movlw	0
  1806  010586  6E1F               	movwf	LEDBLINK@port3,c
  1807  010588  0E00               	movlw	0
  1808  01058A  6E22               	movwf	LEDBLINK@port4+1,c
  1809  01058C  0E02               	movlw	2
  1810  01058E  6E21               	movwf	LEDBLINK@port4,c
  1811  010590  0E00               	movlw	0
  1812  010592  6E24               	movwf	LEDBLINK@port5+1,c
  1813  010594  0E02               	movlw	2
  1814  010596  6E23               	movwf	LEDBLINK@port5,c
  1815  010598  0E00               	movlw	0
  1816  01059A  6E26               	movwf	LEDBLINK@port6+1,c
  1817  01059C  0E02               	movlw	2
  1818  01059E  6E25               	movwf	LEDBLINK@port6,c
  1819  0105A0  0E00               	movlw	0
  1820  0105A2  6E28               	movwf	LEDBLINK@port7+1,c
  1821  0105A4  0E01               	movlw	1
  1822  0105A6  6E27               	movwf	LEDBLINK@port7,c
  1823  0105A8  0E00               	movlw	0
  1824  0105AA  6E2A               	movwf	LEDBLINK@port8+1,c
  1825  0105AC  0E02               	movlw	2
  1826  0105AE  6E29               	movwf	LEDBLINK@port8,c
  1827  0105B0  EC4A  F089         	call	_LEDBLINK	;wreg free
  1828                           
  1829                           ;main.c: 115: delayms(led_delay);
  1830  0105B4  C03B  F020         	movff	main@led_delay,delayms@ms
  1831  0105B8  C03C  F021         	movff	main@led_delay+1,delayms@ms+1
  1832  0105BC  EC1B  F08B         	call	_delayms	;wreg free
  1833                           
  1834                           ;main.c: 116: LEDBLINK(2,2,0,2,2,1,2,2);
  1835  0105C0  0E00               	movlw	0
  1836  0105C2  6E1C               	movwf	LEDBLINK@port1+1,c
  1837  0105C4  0E02               	movlw	2
  1838  0105C6  6E1B               	movwf	LEDBLINK@port1,c
  1839  0105C8  0E00               	movlw	0
  1840  0105CA  6E1E               	movwf	LEDBLINK@port2+1,c
  1841  0105CC  0E02               	movlw	2
  1842  0105CE  6E1D               	movwf	LEDBLINK@port2,c
  1843  0105D0  0E00               	movlw	0
  1844  0105D2  6E20               	movwf	LEDBLINK@port3+1,c
  1845  0105D4  0E00               	movlw	0
  1846  0105D6  6E1F               	movwf	LEDBLINK@port3,c
  1847  0105D8  0E00               	movlw	0
  1848  0105DA  6E22               	movwf	LEDBLINK@port4+1,c
  1849  0105DC  0E02               	movlw	2
  1850  0105DE  6E21               	movwf	LEDBLINK@port4,c
  1851  0105E0  0E00               	movlw	0
  1852  0105E2  6E24               	movwf	LEDBLINK@port5+1,c
  1853  0105E4  0E02               	movlw	2
  1854  0105E6  6E23               	movwf	LEDBLINK@port5,c
  1855  0105E8  0E00               	movlw	0
  1856  0105EA  6E26               	movwf	LEDBLINK@port6+1,c
  1857  0105EC  0E01               	movlw	1
  1858  0105EE  6E25               	movwf	LEDBLINK@port6,c
  1859  0105F0  0E00               	movlw	0
  1860  0105F2  6E28               	movwf	LEDBLINK@port7+1,c
  1861  0105F4  0E02               	movlw	2
  1862  0105F6  6E27               	movwf	LEDBLINK@port7,c
  1863  0105F8  0E00               	movlw	0
  1864  0105FA  6E2A               	movwf	LEDBLINK@port8+1,c
  1865  0105FC  0E02               	movlw	2
  1866  0105FE  6E29               	movwf	LEDBLINK@port8,c
  1867  010600  EC4A  F089         	call	_LEDBLINK	;wreg free
  1868                           
  1869                           ;main.c: 117: delayms(led_delay);
  1870  010604  C03B  F020         	movff	main@led_delay,delayms@ms
  1871  010608  C03C  F021         	movff	main@led_delay+1,delayms@ms+1
  1872  01060C  EC1B  F08B         	call	_delayms	;wreg free
  1873                           
  1874                           ;main.c: 118: LEDBLINK(2,2,0,2,1,2,2,2);
  1875  010610  0E00               	movlw	0
  1876  010612  6E1C               	movwf	LEDBLINK@port1+1,c
  1877  010614  0E02               	movlw	2
  1878  010616  6E1B               	movwf	LEDBLINK@port1,c
  1879  010618  0E00               	movlw	0
  1880  01061A  6E1E               	movwf	LEDBLINK@port2+1,c
  1881  01061C  0E02               	movlw	2
  1882  01061E  6E1D               	movwf	LEDBLINK@port2,c
  1883  010620  0E00               	movlw	0
  1884  010622  6E20               	movwf	LEDBLINK@port3+1,c
  1885  010624  0E00               	movlw	0
  1886  010626  6E1F               	movwf	LEDBLINK@port3,c
  1887  010628  0E00               	movlw	0
  1888  01062A  6E22               	movwf	LEDBLINK@port4+1,c
  1889  01062C  0E02               	movlw	2
  1890  01062E  6E21               	movwf	LEDBLINK@port4,c
  1891  010630  0E00               	movlw	0
  1892  010632  6E24               	movwf	LEDBLINK@port5+1,c
  1893  010634  0E01               	movlw	1
  1894  010636  6E23               	movwf	LEDBLINK@port5,c
  1895  010638  0E00               	movlw	0
  1896  01063A  6E26               	movwf	LEDBLINK@port6+1,c
  1897  01063C  0E02               	movlw	2
  1898  01063E  6E25               	movwf	LEDBLINK@port6,c
  1899  010640  0E00               	movlw	0
  1900  010642  6E28               	movwf	LEDBLINK@port7+1,c
  1901  010644  0E02               	movlw	2
  1902  010646  6E27               	movwf	LEDBLINK@port7,c
  1903  010648  0E00               	movlw	0
  1904  01064A  6E2A               	movwf	LEDBLINK@port8+1,c
  1905  01064C  0E02               	movlw	2
  1906  01064E  6E29               	movwf	LEDBLINK@port8,c
  1907  010650  EC4A  F089         	call	_LEDBLINK	;wreg free
  1908                           
  1909                           ;main.c: 119: delayms(led_delay);
  1910  010654  C03B  F020         	movff	main@led_delay,delayms@ms
  1911  010658  C03C  F021         	movff	main@led_delay+1,delayms@ms+1
  1912  01065C  EC1B  F08B         	call	_delayms	;wreg free
  1913                           
  1914                           ;main.c: 120: LEDBLINK(2,2,0,1,2,2,2,2);
  1915  010660  0E00               	movlw	0
  1916  010662  6E1C               	movwf	LEDBLINK@port1+1,c
  1917  010664  0E02               	movlw	2
  1918  010666  6E1B               	movwf	LEDBLINK@port1,c
  1919  010668  0E00               	movlw	0
  1920  01066A  6E1E               	movwf	LEDBLINK@port2+1,c
  1921  01066C  0E02               	movlw	2
  1922  01066E  6E1D               	movwf	LEDBLINK@port2,c
  1923  010670  0E00               	movlw	0
  1924  010672  6E20               	movwf	LEDBLINK@port3+1,c
  1925  010674  0E00               	movlw	0
  1926  010676  6E1F               	movwf	LEDBLINK@port3,c
  1927  010678  0E00               	movlw	0
  1928  01067A  6E22               	movwf	LEDBLINK@port4+1,c
  1929  01067C  0E01               	movlw	1
  1930  01067E  6E21               	movwf	LEDBLINK@port4,c
  1931  010680  0E00               	movlw	0
  1932  010682  6E24               	movwf	LEDBLINK@port5+1,c
  1933  010684  0E02               	movlw	2
  1934  010686  6E23               	movwf	LEDBLINK@port5,c
  1935  010688  0E00               	movlw	0
  1936  01068A  6E26               	movwf	LEDBLINK@port6+1,c
  1937  01068C  0E02               	movlw	2
  1938  01068E  6E25               	movwf	LEDBLINK@port6,c
  1939  010690  0E00               	movlw	0
  1940  010692  6E28               	movwf	LEDBLINK@port7+1,c
  1941  010694  0E02               	movlw	2
  1942  010696  6E27               	movwf	LEDBLINK@port7,c
  1943  010698  0E00               	movlw	0
  1944  01069A  6E2A               	movwf	LEDBLINK@port8+1,c
  1945  01069C  0E02               	movlw	2
  1946  01069E  6E29               	movwf	LEDBLINK@port8,c
  1947  0106A0  EC4A  F089         	call	_LEDBLINK	;wreg free
  1948                           
  1949                           ;main.c: 121: delayms(led_delay);
  1950  0106A4  C03B  F020         	movff	main@led_delay,delayms@ms
  1951  0106A8  C03C  F021         	movff	main@led_delay+1,delayms@ms+1
  1952  0106AC  EC1B  F08B         	call	_delayms	;wreg free
  1953                           
  1954                           ;main.c: 122: LEDBLINK(2,1,0,2,2,2,2,2);
  1955  0106B0  0E00               	movlw	0
  1956  0106B2  6E1C               	movwf	LEDBLINK@port1+1,c
  1957  0106B4  0E02               	movlw	2
  1958  0106B6  6E1B               	movwf	LEDBLINK@port1,c
  1959  0106B8  0E00               	movlw	0
  1960  0106BA  6E1E               	movwf	LEDBLINK@port2+1,c
  1961  0106BC  0E01               	movlw	1
  1962  0106BE  6E1D               	movwf	LEDBLINK@port2,c
  1963  0106C0  0E00               	movlw	0
  1964  0106C2  6E20               	movwf	LEDBLINK@port3+1,c
  1965  0106C4  0E00               	movlw	0
  1966  0106C6  6E1F               	movwf	LEDBLINK@port3,c
  1967  0106C8  0E00               	movlw	0
  1968  0106CA  6E22               	movwf	LEDBLINK@port4+1,c
  1969  0106CC  0E02               	movlw	2
  1970  0106CE  6E21               	movwf	LEDBLINK@port4,c
  1971  0106D0  0E00               	movlw	0
  1972  0106D2  6E24               	movwf	LEDBLINK@port5+1,c
  1973  0106D4  0E02               	movlw	2
  1974  0106D6  6E23               	movwf	LEDBLINK@port5,c
  1975  0106D8  0E00               	movlw	0
  1976  0106DA  6E26               	movwf	LEDBLINK@port6+1,c
  1977  0106DC  0E02               	movlw	2
  1978  0106DE  6E25               	movwf	LEDBLINK@port6,c
  1979  0106E0  0E00               	movlw	0
  1980  0106E2  6E28               	movwf	LEDBLINK@port7+1,c
  1981  0106E4  0E02               	movlw	2
  1982  0106E6  6E27               	movwf	LEDBLINK@port7,c
  1983  0106E8  0E00               	movlw	0
  1984  0106EA  6E2A               	movwf	LEDBLINK@port8+1,c
  1985  0106EC  0E02               	movlw	2
  1986  0106EE  6E29               	movwf	LEDBLINK@port8,c
  1987  0106F0  EC4A  F089         	call	_LEDBLINK	;wreg free
  1988                           
  1989                           ;main.c: 123: delayms(led_delay);
  1990  0106F4  C03B  F020         	movff	main@led_delay,delayms@ms
  1991  0106F8  C03C  F021         	movff	main@led_delay+1,delayms@ms+1
  1992  0106FC  EC1B  F08B         	call	_delayms	;wreg free
  1993                           
  1994                           ;main.c: 124: LEDBLINK(1,2,0,2,2,2,2,2);
  1995  010700  0E00               	movlw	0
  1996  010702  6E1C               	movwf	LEDBLINK@port1+1,c
  1997  010704  0E01               	movlw	1
  1998  010706  6E1B               	movwf	LEDBLINK@port1,c
  1999  010708  0E00               	movlw	0
  2000  01070A  6E1E               	movwf	LEDBLINK@port2+1,c
  2001  01070C  0E02               	movlw	2
  2002  01070E  6E1D               	movwf	LEDBLINK@port2,c
  2003  010710  0E00               	movlw	0
  2004  010712  6E20               	movwf	LEDBLINK@port3+1,c
  2005  010714  0E00               	movlw	0
  2006  010716  6E1F               	movwf	LEDBLINK@port3,c
  2007  010718  0E00               	movlw	0
  2008  01071A  6E22               	movwf	LEDBLINK@port4+1,c
  2009  01071C  0E02               	movlw	2
  2010  01071E  6E21               	movwf	LEDBLINK@port4,c
  2011  010720  0E00               	movlw	0
  2012  010722  6E24               	movwf	LEDBLINK@port5+1,c
  2013  010724  0E02               	movlw	2
  2014  010726  6E23               	movwf	LEDBLINK@port5,c
  2015  010728  0E00               	movlw	0
  2016  01072A  6E26               	movwf	LEDBLINK@port6+1,c
  2017  01072C  0E02               	movlw	2
  2018  01072E  6E25               	movwf	LEDBLINK@port6,c
  2019  010730  0E00               	movlw	0
  2020  010732  6E28               	movwf	LEDBLINK@port7+1,c
  2021  010734  0E02               	movlw	2
  2022  010736  6E27               	movwf	LEDBLINK@port7,c
  2023  010738  0E00               	movlw	0
  2024  01073A  6E2A               	movwf	LEDBLINK@port8+1,c
  2025  01073C  0E02               	movlw	2
  2026  01073E  6E29               	movwf	LEDBLINK@port8,c
  2027  010740  EC4A  F089         	call	_LEDBLINK	;wreg free
  2028                           
  2029                           ;main.c: 126: delayms(led_delay);
  2030  010744  C03B  F020         	movff	main@led_delay,delayms@ms
  2031  010748  C03C  F021         	movff	main@led_delay+1,delayms@ms+1
  2032  01074C  EC1B  F08B         	call	_delayms	;wreg free
  2033                           
  2034                           ;main.c: 127: LEDBLINK(2,2,2,0,2,2,2,1);
  2035  010750  0E00               	movlw	0
  2036  010752  6E1C               	movwf	LEDBLINK@port1+1,c
  2037  010754  0E02               	movlw	2
  2038  010756  6E1B               	movwf	LEDBLINK@port1,c
  2039  010758  0E00               	movlw	0
  2040  01075A  6E1E               	movwf	LEDBLINK@port2+1,c
  2041  01075C  0E02               	movlw	2
  2042  01075E  6E1D               	movwf	LEDBLINK@port2,c
  2043  010760  0E00               	movlw	0
  2044  010762  6E20               	movwf	LEDBLINK@port3+1,c
  2045  010764  0E02               	movlw	2
  2046  010766  6E1F               	movwf	LEDBLINK@port3,c
  2047  010768  0E00               	movlw	0
  2048  01076A  6E22               	movwf	LEDBLINK@port4+1,c
  2049  01076C  0E00               	movlw	0
  2050  01076E  6E21               	movwf	LEDBLINK@port4,c
  2051  010770  0E00               	movlw	0
  2052  010772  6E24               	movwf	LEDBLINK@port5+1,c
  2053  010774  0E02               	movlw	2
  2054  010776  6E23               	movwf	LEDBLINK@port5,c
  2055  010778  0E00               	movlw	0
  2056  01077A  6E26               	movwf	LEDBLINK@port6+1,c
  2057  01077C  0E02               	movlw	2
  2058  01077E  6E25               	movwf	LEDBLINK@port6,c
  2059  010780  0E00               	movlw	0
  2060  010782  6E28               	movwf	LEDBLINK@port7+1,c
  2061  010784  0E02               	movlw	2
  2062  010786  6E27               	movwf	LEDBLINK@port7,c
  2063  010788  0E00               	movlw	0
  2064  01078A  6E2A               	movwf	LEDBLINK@port8+1,c
  2065  01078C  0E01               	movlw	1
  2066  01078E  6E29               	movwf	LEDBLINK@port8,c
  2067  010790  EC4A  F089         	call	_LEDBLINK	;wreg free
  2068                           
  2069                           ;main.c: 128: delayms(led_delay);
  2070  010794  C03B  F020         	movff	main@led_delay,delayms@ms
  2071  010798  C03C  F021         	movff	main@led_delay+1,delayms@ms+1
  2072  01079C  EC1B  F08B         	call	_delayms	;wreg free
  2073                           
  2074                           ;main.c: 129: LEDBLINK(2,2,2,0,2,2,1,2);
  2075  0107A0  0E00               	movlw	0
  2076  0107A2  6E1C               	movwf	LEDBLINK@port1+1,c
  2077  0107A4  0E02               	movlw	2
  2078  0107A6  6E1B               	movwf	LEDBLINK@port1,c
  2079  0107A8  0E00               	movlw	0
  2080  0107AA  6E1E               	movwf	LEDBLINK@port2+1,c
  2081  0107AC  0E02               	movlw	2
  2082  0107AE  6E1D               	movwf	LEDBLINK@port2,c
  2083  0107B0  0E00               	movlw	0
  2084  0107B2  6E20               	movwf	LEDBLINK@port3+1,c
  2085  0107B4  0E02               	movlw	2
  2086  0107B6  6E1F               	movwf	LEDBLINK@port3,c
  2087  0107B8  0E00               	movlw	0
  2088  0107BA  6E22               	movwf	LEDBLINK@port4+1,c
  2089  0107BC  0E00               	movlw	0
  2090  0107BE  6E21               	movwf	LEDBLINK@port4,c
  2091  0107C0  0E00               	movlw	0
  2092  0107C2  6E24               	movwf	LEDBLINK@port5+1,c
  2093  0107C4  0E02               	movlw	2
  2094  0107C6  6E23               	movwf	LEDBLINK@port5,c
  2095  0107C8  0E00               	movlw	0
  2096  0107CA  6E26               	movwf	LEDBLINK@port6+1,c
  2097  0107CC  0E02               	movlw	2
  2098  0107CE  6E25               	movwf	LEDBLINK@port6,c
  2099  0107D0  0E00               	movlw	0
  2100  0107D2  6E28               	movwf	LEDBLINK@port7+1,c
  2101  0107D4  0E01               	movlw	1
  2102  0107D6  6E27               	movwf	LEDBLINK@port7,c
  2103  0107D8  0E00               	movlw	0
  2104  0107DA  6E2A               	movwf	LEDBLINK@port8+1,c
  2105  0107DC  0E02               	movlw	2
  2106  0107DE  6E29               	movwf	LEDBLINK@port8,c
  2107  0107E0  EC4A  F089         	call	_LEDBLINK	;wreg free
  2108                           
  2109                           ;main.c: 130: delayms(led_delay);
  2110  0107E4  C03B  F020         	movff	main@led_delay,delayms@ms
  2111  0107E8  C03C  F021         	movff	main@led_delay+1,delayms@ms+1
  2112  0107EC  EC1B  F08B         	call	_delayms	;wreg free
  2113                           
  2114                           ;main.c: 131: LEDBLINK(2,2,2,0,2,1,2,2);
  2115  0107F0  0E00               	movlw	0
  2116  0107F2  6E1C               	movwf	LEDBLINK@port1+1,c
  2117  0107F4  0E02               	movlw	2
  2118  0107F6  6E1B               	movwf	LEDBLINK@port1,c
  2119  0107F8  0E00               	movlw	0
  2120  0107FA  6E1E               	movwf	LEDBLINK@port2+1,c
  2121  0107FC  0E02               	movlw	2
  2122  0107FE  6E1D               	movwf	LEDBLINK@port2,c
  2123  010800  0E00               	movlw	0
  2124  010802  6E20               	movwf	LEDBLINK@port3+1,c
  2125  010804  0E02               	movlw	2
  2126  010806  6E1F               	movwf	LEDBLINK@port3,c
  2127  010808  0E00               	movlw	0
  2128  01080A  6E22               	movwf	LEDBLINK@port4+1,c
  2129  01080C  0E00               	movlw	0
  2130  01080E  6E21               	movwf	LEDBLINK@port4,c
  2131  010810  0E00               	movlw	0
  2132  010812  6E24               	movwf	LEDBLINK@port5+1,c
  2133  010814  0E02               	movlw	2
  2134  010816  6E23               	movwf	LEDBLINK@port5,c
  2135  010818  0E00               	movlw	0
  2136  01081A  6E26               	movwf	LEDBLINK@port6+1,c
  2137  01081C  0E01               	movlw	1
  2138  01081E  6E25               	movwf	LEDBLINK@port6,c
  2139  010820  0E00               	movlw	0
  2140  010822  6E28               	movwf	LEDBLINK@port7+1,c
  2141  010824  0E02               	movlw	2
  2142  010826  6E27               	movwf	LEDBLINK@port7,c
  2143  010828  0E00               	movlw	0
  2144  01082A  6E2A               	movwf	LEDBLINK@port8+1,c
  2145  01082C  0E02               	movlw	2
  2146  01082E  6E29               	movwf	LEDBLINK@port8,c
  2147  010830  EC4A  F089         	call	_LEDBLINK	;wreg free
  2148                           
  2149                           ;main.c: 132: delayms(led_delay);
  2150  010834  C03B  F020         	movff	main@led_delay,delayms@ms
  2151  010838  C03C  F021         	movff	main@led_delay+1,delayms@ms+1
  2152  01083C  EC1B  F08B         	call	_delayms	;wreg free
  2153                           
  2154                           ;main.c: 133: LEDBLINK(2,2,2,0,1,2,2,2);
  2155  010840  0E00               	movlw	0
  2156  010842  6E1C               	movwf	LEDBLINK@port1+1,c
  2157  010844  0E02               	movlw	2
  2158  010846  6E1B               	movwf	LEDBLINK@port1,c
  2159  010848  0E00               	movlw	0
  2160  01084A  6E1E               	movwf	LEDBLINK@port2+1,c
  2161  01084C  0E02               	movlw	2
  2162  01084E  6E1D               	movwf	LEDBLINK@port2,c
  2163  010850  0E00               	movlw	0
  2164  010852  6E20               	movwf	LEDBLINK@port3+1,c
  2165  010854  0E02               	movlw	2
  2166  010856  6E1F               	movwf	LEDBLINK@port3,c
  2167  010858  0E00               	movlw	0
  2168  01085A  6E22               	movwf	LEDBLINK@port4+1,c
  2169  01085C  0E00               	movlw	0
  2170  01085E  6E21               	movwf	LEDBLINK@port4,c
  2171  010860  0E00               	movlw	0
  2172  010862  6E24               	movwf	LEDBLINK@port5+1,c
  2173  010864  0E01               	movlw	1
  2174  010866  6E23               	movwf	LEDBLINK@port5,c
  2175  010868  0E00               	movlw	0
  2176  01086A  6E26               	movwf	LEDBLINK@port6+1,c
  2177  01086C  0E02               	movlw	2
  2178  01086E  6E25               	movwf	LEDBLINK@port6,c
  2179  010870  0E00               	movlw	0
  2180  010872  6E28               	movwf	LEDBLINK@port7+1,c
  2181  010874  0E02               	movlw	2
  2182  010876  6E27               	movwf	LEDBLINK@port7,c
  2183  010878  0E00               	movlw	0
  2184  01087A  6E2A               	movwf	LEDBLINK@port8+1,c
  2185  01087C  0E02               	movlw	2
  2186  01087E  6E29               	movwf	LEDBLINK@port8,c
  2187  010880  EC4A  F089         	call	_LEDBLINK	;wreg free
  2188                           
  2189                           ;main.c: 134: delayms(led_delay);
  2190  010884  C03B  F020         	movff	main@led_delay,delayms@ms
  2191  010888  C03C  F021         	movff	main@led_delay+1,delayms@ms+1
  2192  01088C  EC1B  F08B         	call	_delayms	;wreg free
  2193                           
  2194                           ;main.c: 135: LEDBLINK(2,2,1,0,2,2,2,2);
  2195  010890  0E00               	movlw	0
  2196  010892  6E1C               	movwf	LEDBLINK@port1+1,c
  2197  010894  0E02               	movlw	2
  2198  010896  6E1B               	movwf	LEDBLINK@port1,c
  2199  010898  0E00               	movlw	0
  2200  01089A  6E1E               	movwf	LEDBLINK@port2+1,c
  2201  01089C  0E02               	movlw	2
  2202  01089E  6E1D               	movwf	LEDBLINK@port2,c
  2203  0108A0  0E00               	movlw	0
  2204  0108A2  6E20               	movwf	LEDBLINK@port3+1,c
  2205  0108A4  0E01               	movlw	1
  2206  0108A6  6E1F               	movwf	LEDBLINK@port3,c
  2207  0108A8  0E00               	movlw	0
  2208  0108AA  6E22               	movwf	LEDBLINK@port4+1,c
  2209  0108AC  0E00               	movlw	0
  2210  0108AE  6E21               	movwf	LEDBLINK@port4,c
  2211  0108B0  0E00               	movlw	0
  2212  0108B2  6E24               	movwf	LEDBLINK@port5+1,c
  2213  0108B4  0E02               	movlw	2
  2214  0108B6  6E23               	movwf	LEDBLINK@port5,c
  2215  0108B8  0E00               	movlw	0
  2216  0108BA  6E26               	movwf	LEDBLINK@port6+1,c
  2217  0108BC  0E02               	movlw	2
  2218  0108BE  6E25               	movwf	LEDBLINK@port6,c
  2219  0108C0  0E00               	movlw	0
  2220  0108C2  6E28               	movwf	LEDBLINK@port7+1,c
  2221  0108C4  0E02               	movlw	2
  2222  0108C6  6E27               	movwf	LEDBLINK@port7,c
  2223  0108C8  0E00               	movlw	0
  2224  0108CA  6E2A               	movwf	LEDBLINK@port8+1,c
  2225  0108CC  0E02               	movlw	2
  2226  0108CE  6E29               	movwf	LEDBLINK@port8,c
  2227  0108D0  EC4A  F089         	call	_LEDBLINK	;wreg free
  2228                           
  2229                           ;main.c: 136: delayms(led_delay);
  2230  0108D4  C03B  F020         	movff	main@led_delay,delayms@ms
  2231  0108D8  C03C  F021         	movff	main@led_delay+1,delayms@ms+1
  2232  0108DC  EC1B  F08B         	call	_delayms	;wreg free
  2233                           
  2234                           ;main.c: 137: LEDBLINK(2,1,2,0,2,2,2,2);
  2235  0108E0  0E00               	movlw	0
  2236  0108E2  6E1C               	movwf	LEDBLINK@port1+1,c
  2237  0108E4  0E02               	movlw	2
  2238  0108E6  6E1B               	movwf	LEDBLINK@port1,c
  2239  0108E8  0E00               	movlw	0
  2240  0108EA  6E1E               	movwf	LEDBLINK@port2+1,c
  2241  0108EC  0E01               	movlw	1
  2242  0108EE  6E1D               	movwf	LEDBLINK@port2,c
  2243  0108F0  0E00               	movlw	0
  2244  0108F2  6E20               	movwf	LEDBLINK@port3+1,c
  2245  0108F4  0E02               	movlw	2
  2246  0108F6  6E1F               	movwf	LEDBLINK@port3,c
  2247  0108F8  0E00               	movlw	0
  2248  0108FA  6E22               	movwf	LEDBLINK@port4+1,c
  2249  0108FC  0E00               	movlw	0
  2250  0108FE  6E21               	movwf	LEDBLINK@port4,c
  2251  010900  0E00               	movlw	0
  2252  010902  6E24               	movwf	LEDBLINK@port5+1,c
  2253  010904  0E02               	movlw	2
  2254  010906  6E23               	movwf	LEDBLINK@port5,c
  2255  010908  0E00               	movlw	0
  2256  01090A  6E26               	movwf	LEDBLINK@port6+1,c
  2257  01090C  0E02               	movlw	2
  2258  01090E  6E25               	movwf	LEDBLINK@port6,c
  2259  010910  0E00               	movlw	0
  2260  010912  6E28               	movwf	LEDBLINK@port7+1,c
  2261  010914  0E02               	movlw	2
  2262  010916  6E27               	movwf	LEDBLINK@port7,c
  2263  010918  0E00               	movlw	0
  2264  01091A  6E2A               	movwf	LEDBLINK@port8+1,c
  2265  01091C  0E02               	movlw	2
  2266  01091E  6E29               	movwf	LEDBLINK@port8,c
  2267  010920  EC4A  F089         	call	_LEDBLINK	;wreg free
  2268                           
  2269                           ;main.c: 138: delayms(led_delay);
  2270  010924  C03B  F020         	movff	main@led_delay,delayms@ms
  2271  010928  C03C  F021         	movff	main@led_delay+1,delayms@ms+1
  2272  01092C  EC1B  F08B         	call	_delayms	;wreg free
  2273                           
  2274                           ;main.c: 139: LEDBLINK(1,2,2,0,2,2,2,2);
  2275  010930  0E00               	movlw	0
  2276  010932  6E1C               	movwf	LEDBLINK@port1+1,c
  2277  010934  0E01               	movlw	1
  2278  010936  6E1B               	movwf	LEDBLINK@port1,c
  2279  010938  0E00               	movlw	0
  2280  01093A  6E1E               	movwf	LEDBLINK@port2+1,c
  2281  01093C  0E02               	movlw	2
  2282  01093E  6E1D               	movwf	LEDBLINK@port2,c
  2283  010940  0E00               	movlw	0
  2284  010942  6E20               	movwf	LEDBLINK@port3+1,c
  2285  010944  0E02               	movlw	2
  2286  010946  6E1F               	movwf	LEDBLINK@port3,c
  2287  010948  0E00               	movlw	0
  2288  01094A  6E22               	movwf	LEDBLINK@port4+1,c
  2289  01094C  0E00               	movlw	0
  2290  01094E  6E21               	movwf	LEDBLINK@port4,c
  2291  010950  0E00               	movlw	0
  2292  010952  6E24               	movwf	LEDBLINK@port5+1,c
  2293  010954  0E02               	movlw	2
  2294  010956  6E23               	movwf	LEDBLINK@port5,c
  2295  010958  0E00               	movlw	0
  2296  01095A  6E26               	movwf	LEDBLINK@port6+1,c
  2297  01095C  0E02               	movlw	2
  2298  01095E  6E25               	movwf	LEDBLINK@port6,c
  2299  010960  0E00               	movlw	0
  2300  010962  6E28               	movwf	LEDBLINK@port7+1,c
  2301  010964  0E02               	movlw	2
  2302  010966  6E27               	movwf	LEDBLINK@port7,c
  2303  010968  0E00               	movlw	0
  2304  01096A  6E2A               	movwf	LEDBLINK@port8+1,c
  2305  01096C  0E02               	movlw	2
  2306  01096E  6E29               	movwf	LEDBLINK@port8,c
  2307  010970  EC4A  F089         	call	_LEDBLINK	;wreg free
  2308                           
  2309                           ;main.c: 141: delayms(led_delay);
  2310  010974  C03B  F020         	movff	main@led_delay,delayms@ms
  2311  010978  C03C  F021         	movff	main@led_delay+1,delayms@ms+1
  2312  01097C  EC1B  F08B         	call	_delayms	;wreg free
  2313                           
  2314                           ;main.c: 142: LEDBLINK(2,2,2,2,0,2,2,1);
  2315  010980  0E00               	movlw	0
  2316  010982  6E1C               	movwf	LEDBLINK@port1+1,c
  2317  010984  0E02               	movlw	2
  2318  010986  6E1B               	movwf	LEDBLINK@port1,c
  2319  010988  0E00               	movlw	0
  2320  01098A  6E1E               	movwf	LEDBLINK@port2+1,c
  2321  01098C  0E02               	movlw	2
  2322  01098E  6E1D               	movwf	LEDBLINK@port2,c
  2323  010990  0E00               	movlw	0
  2324  010992  6E20               	movwf	LEDBLINK@port3+1,c
  2325  010994  0E02               	movlw	2
  2326  010996  6E1F               	movwf	LEDBLINK@port3,c
  2327  010998  0E00               	movlw	0
  2328  01099A  6E22               	movwf	LEDBLINK@port4+1,c
  2329  01099C  0E02               	movlw	2
  2330  01099E  6E21               	movwf	LEDBLINK@port4,c
  2331  0109A0  0E00               	movlw	0
  2332  0109A2  6E24               	movwf	LEDBLINK@port5+1,c
  2333  0109A4  0E00               	movlw	0
  2334  0109A6  6E23               	movwf	LEDBLINK@port5,c
  2335  0109A8  0E00               	movlw	0
  2336  0109AA  6E26               	movwf	LEDBLINK@port6+1,c
  2337  0109AC  0E02               	movlw	2
  2338  0109AE  6E25               	movwf	LEDBLINK@port6,c
  2339  0109B0  0E00               	movlw	0
  2340  0109B2  6E28               	movwf	LEDBLINK@port7+1,c
  2341  0109B4  0E02               	movlw	2
  2342  0109B6  6E27               	movwf	LEDBLINK@port7,c
  2343  0109B8  0E00               	movlw	0
  2344  0109BA  6E2A               	movwf	LEDBLINK@port8+1,c
  2345  0109BC  0E01               	movlw	1
  2346  0109BE  6E29               	movwf	LEDBLINK@port8,c
  2347  0109C0  EC4A  F089         	call	_LEDBLINK	;wreg free
  2348                           
  2349                           ;main.c: 143: delayms(led_delay);
  2350  0109C4  C03B  F020         	movff	main@led_delay,delayms@ms
  2351  0109C8  C03C  F021         	movff	main@led_delay+1,delayms@ms+1
  2352  0109CC  EC1B  F08B         	call	_delayms	;wreg free
  2353                           
  2354                           ;main.c: 144: LEDBLINK(2,2,2,2,0,2,1,2);
  2355  0109D0  0E00               	movlw	0
  2356  0109D2  6E1C               	movwf	LEDBLINK@port1+1,c
  2357  0109D4  0E02               	movlw	2
  2358  0109D6  6E1B               	movwf	LEDBLINK@port1,c
  2359  0109D8  0E00               	movlw	0
  2360  0109DA  6E1E               	movwf	LEDBLINK@port2+1,c
  2361  0109DC  0E02               	movlw	2
  2362  0109DE  6E1D               	movwf	LEDBLINK@port2,c
  2363  0109E0  0E00               	movlw	0
  2364  0109E2  6E20               	movwf	LEDBLINK@port3+1,c
  2365  0109E4  0E02               	movlw	2
  2366  0109E6  6E1F               	movwf	LEDBLINK@port3,c
  2367  0109E8  0E00               	movlw	0
  2368  0109EA  6E22               	movwf	LEDBLINK@port4+1,c
  2369  0109EC  0E02               	movlw	2
  2370  0109EE  6E21               	movwf	LEDBLINK@port4,c
  2371  0109F0  0E00               	movlw	0
  2372  0109F2  6E24               	movwf	LEDBLINK@port5+1,c
  2373  0109F4  0E00               	movlw	0
  2374  0109F6  6E23               	movwf	LEDBLINK@port5,c
  2375  0109F8  0E00               	movlw	0
  2376  0109FA  6E26               	movwf	LEDBLINK@port6+1,c
  2377  0109FC  0E02               	movlw	2
  2378  0109FE  6E25               	movwf	LEDBLINK@port6,c
  2379  010A00  0E00               	movlw	0
  2380  010A02  6E28               	movwf	LEDBLINK@port7+1,c
  2381  010A04  0E01               	movlw	1
  2382  010A06  6E27               	movwf	LEDBLINK@port7,c
  2383  010A08  0E00               	movlw	0
  2384  010A0A  6E2A               	movwf	LEDBLINK@port8+1,c
  2385  010A0C  0E02               	movlw	2
  2386  010A0E  6E29               	movwf	LEDBLINK@port8,c
  2387  010A10  EC4A  F089         	call	_LEDBLINK	;wreg free
  2388                           
  2389                           ;main.c: 145: delayms(led_delay);
  2390  010A14  C03B  F020         	movff	main@led_delay,delayms@ms
  2391  010A18  C03C  F021         	movff	main@led_delay+1,delayms@ms+1
  2392  010A1C  EC1B  F08B         	call	_delayms	;wreg free
  2393                           
  2394                           ;main.c: 146: LEDBLINK(2,2,2,2,0,1,2,2);
  2395  010A20  0E00               	movlw	0
  2396  010A22  6E1C               	movwf	LEDBLINK@port1+1,c
  2397  010A24  0E02               	movlw	2
  2398  010A26  6E1B               	movwf	LEDBLINK@port1,c
  2399  010A28  0E00               	movlw	0
  2400  010A2A  6E1E               	movwf	LEDBLINK@port2+1,c
  2401  010A2C  0E02               	movlw	2
  2402  010A2E  6E1D               	movwf	LEDBLINK@port2,c
  2403  010A30  0E00               	movlw	0
  2404  010A32  6E20               	movwf	LEDBLINK@port3+1,c
  2405  010A34  0E02               	movlw	2
  2406  010A36  6E1F               	movwf	LEDBLINK@port3,c
  2407  010A38  0E00               	movlw	0
  2408  010A3A  6E22               	movwf	LEDBLINK@port4+1,c
  2409  010A3C  0E02               	movlw	2
  2410  010A3E  6E21               	movwf	LEDBLINK@port4,c
  2411  010A40  0E00               	movlw	0
  2412  010A42  6E24               	movwf	LEDBLINK@port5+1,c
  2413  010A44  0E00               	movlw	0
  2414  010A46  6E23               	movwf	LEDBLINK@port5,c
  2415  010A48  0E00               	movlw	0
  2416  010A4A  6E26               	movwf	LEDBLINK@port6+1,c
  2417  010A4C  0E01               	movlw	1
  2418  010A4E  6E25               	movwf	LEDBLINK@port6,c
  2419  010A50  0E00               	movlw	0
  2420  010A52  6E28               	movwf	LEDBLINK@port7+1,c
  2421  010A54  0E02               	movlw	2
  2422  010A56  6E27               	movwf	LEDBLINK@port7,c
  2423  010A58  0E00               	movlw	0
  2424  010A5A  6E2A               	movwf	LEDBLINK@port8+1,c
  2425  010A5C  0E02               	movlw	2
  2426  010A5E  6E29               	movwf	LEDBLINK@port8,c
  2427  010A60  EC4A  F089         	call	_LEDBLINK	;wreg free
  2428                           
  2429                           ;main.c: 147: delayms(led_delay);
  2430  010A64  C03B  F020         	movff	main@led_delay,delayms@ms
  2431  010A68  C03C  F021         	movff	main@led_delay+1,delayms@ms+1
  2432  010A6C  EC1B  F08B         	call	_delayms	;wreg free
  2433                           
  2434                           ;main.c: 148: LEDBLINK(2,2,2,1,0,2,2,2);
  2435  010A70  0E00               	movlw	0
  2436  010A72  6E1C               	movwf	LEDBLINK@port1+1,c
  2437  010A74  0E02               	movlw	2
  2438  010A76  6E1B               	movwf	LEDBLINK@port1,c
  2439  010A78  0E00               	movlw	0
  2440  010A7A  6E1E               	movwf	LEDBLINK@port2+1,c
  2441  010A7C  0E02               	movlw	2
  2442  010A7E  6E1D               	movwf	LEDBLINK@port2,c
  2443  010A80  0E00               	movlw	0
  2444  010A82  6E20               	movwf	LEDBLINK@port3+1,c
  2445  010A84  0E02               	movlw	2
  2446  010A86  6E1F               	movwf	LEDBLINK@port3,c
  2447  010A88  0E00               	movlw	0
  2448  010A8A  6E22               	movwf	LEDBLINK@port4+1,c
  2449  010A8C  0E01               	movlw	1
  2450  010A8E  6E21               	movwf	LEDBLINK@port4,c
  2451  010A90  0E00               	movlw	0
  2452  010A92  6E24               	movwf	LEDBLINK@port5+1,c
  2453  010A94  0E00               	movlw	0
  2454  010A96  6E23               	movwf	LEDBLINK@port5,c
  2455  010A98  0E00               	movlw	0
  2456  010A9A  6E26               	movwf	LEDBLINK@port6+1,c
  2457  010A9C  0E02               	movlw	2
  2458  010A9E  6E25               	movwf	LEDBLINK@port6,c
  2459  010AA0  0E00               	movlw	0
  2460  010AA2  6E28               	movwf	LEDBLINK@port7+1,c
  2461  010AA4  0E02               	movlw	2
  2462  010AA6  6E27               	movwf	LEDBLINK@port7,c
  2463  010AA8  0E00               	movlw	0
  2464  010AAA  6E2A               	movwf	LEDBLINK@port8+1,c
  2465  010AAC  0E02               	movlw	2
  2466  010AAE  6E29               	movwf	LEDBLINK@port8,c
  2467  010AB0  EC4A  F089         	call	_LEDBLINK	;wreg free
  2468                           
  2469                           ;main.c: 149: delayms(led_delay);
  2470  010AB4  C03B  F020         	movff	main@led_delay,delayms@ms
  2471  010AB8  C03C  F021         	movff	main@led_delay+1,delayms@ms+1
  2472  010ABC  EC1B  F08B         	call	_delayms	;wreg free
  2473                           
  2474                           ;main.c: 150: LEDBLINK(2,2,1,2,0,2,2,2);
  2475  010AC0  0E00               	movlw	0
  2476  010AC2  6E1C               	movwf	LEDBLINK@port1+1,c
  2477  010AC4  0E02               	movlw	2
  2478  010AC6  6E1B               	movwf	LEDBLINK@port1,c
  2479  010AC8  0E00               	movlw	0
  2480  010ACA  6E1E               	movwf	LEDBLINK@port2+1,c
  2481  010ACC  0E02               	movlw	2
  2482  010ACE  6E1D               	movwf	LEDBLINK@port2,c
  2483  010AD0  0E00               	movlw	0
  2484  010AD2  6E20               	movwf	LEDBLINK@port3+1,c
  2485  010AD4  0E01               	movlw	1
  2486  010AD6  6E1F               	movwf	LEDBLINK@port3,c
  2487  010AD8  0E00               	movlw	0
  2488  010ADA  6E22               	movwf	LEDBLINK@port4+1,c
  2489  010ADC  0E02               	movlw	2
  2490  010ADE  6E21               	movwf	LEDBLINK@port4,c
  2491  010AE0  0E00               	movlw	0
  2492  010AE2  6E24               	movwf	LEDBLINK@port5+1,c
  2493  010AE4  0E00               	movlw	0
  2494  010AE6  6E23               	movwf	LEDBLINK@port5,c
  2495  010AE8  0E00               	movlw	0
  2496  010AEA  6E26               	movwf	LEDBLINK@port6+1,c
  2497  010AEC  0E02               	movlw	2
  2498  010AEE  6E25               	movwf	LEDBLINK@port6,c
  2499  010AF0  0E00               	movlw	0
  2500  010AF2  6E28               	movwf	LEDBLINK@port7+1,c
  2501  010AF4  0E02               	movlw	2
  2502  010AF6  6E27               	movwf	LEDBLINK@port7,c
  2503  010AF8  0E00               	movlw	0
  2504  010AFA  6E2A               	movwf	LEDBLINK@port8+1,c
  2505  010AFC  0E02               	movlw	2
  2506  010AFE  6E29               	movwf	LEDBLINK@port8,c
  2507  010B00  EC4A  F089         	call	_LEDBLINK	;wreg free
  2508                           
  2509                           ;main.c: 151: delayms(led_delay);
  2510  010B04  C03B  F020         	movff	main@led_delay,delayms@ms
  2511  010B08  C03C  F021         	movff	main@led_delay+1,delayms@ms+1
  2512  010B0C  EC1B  F08B         	call	_delayms	;wreg free
  2513                           
  2514                           ;main.c: 152: LEDBLINK(2,1,2,2,0,2,2,2);
  2515  010B10  0E00               	movlw	0
  2516  010B12  6E1C               	movwf	LEDBLINK@port1+1,c
  2517  010B14  0E02               	movlw	2
  2518  010B16  6E1B               	movwf	LEDBLINK@port1,c
  2519  010B18  0E00               	movlw	0
  2520  010B1A  6E1E               	movwf	LEDBLINK@port2+1,c
  2521  010B1C  0E01               	movlw	1
  2522  010B1E  6E1D               	movwf	LEDBLINK@port2,c
  2523  010B20  0E00               	movlw	0
  2524  010B22  6E20               	movwf	LEDBLINK@port3+1,c
  2525  010B24  0E02               	movlw	2
  2526  010B26  6E1F               	movwf	LEDBLINK@port3,c
  2527  010B28  0E00               	movlw	0
  2528  010B2A  6E22               	movwf	LEDBLINK@port4+1,c
  2529  010B2C  0E02               	movlw	2
  2530  010B2E  6E21               	movwf	LEDBLINK@port4,c
  2531  010B30  0E00               	movlw	0
  2532  010B32  6E24               	movwf	LEDBLINK@port5+1,c
  2533  010B34  0E00               	movlw	0
  2534  010B36  6E23               	movwf	LEDBLINK@port5,c
  2535  010B38  0E00               	movlw	0
  2536  010B3A  6E26               	movwf	LEDBLINK@port6+1,c
  2537  010B3C  0E02               	movlw	2
  2538  010B3E  6E25               	movwf	LEDBLINK@port6,c
  2539  010B40  0E00               	movlw	0
  2540  010B42  6E28               	movwf	LEDBLINK@port7+1,c
  2541  010B44  0E02               	movlw	2
  2542  010B46  6E27               	movwf	LEDBLINK@port7,c
  2543  010B48  0E00               	movlw	0
  2544  010B4A  6E2A               	movwf	LEDBLINK@port8+1,c
  2545  010B4C  0E02               	movlw	2
  2546  010B4E  6E29               	movwf	LEDBLINK@port8,c
  2547  010B50  EC4A  F089         	call	_LEDBLINK	;wreg free
  2548                           
  2549                           ;main.c: 153: delayms(led_delay);
  2550  010B54  C03B  F020         	movff	main@led_delay,delayms@ms
  2551  010B58  C03C  F021         	movff	main@led_delay+1,delayms@ms+1
  2552  010B5C  EC1B  F08B         	call	_delayms	;wreg free
  2553                           
  2554                           ;main.c: 154: LEDBLINK(1,2,2,2,0,2,2,2);
  2555  010B60  0E00               	movlw	0
  2556  010B62  6E1C               	movwf	LEDBLINK@port1+1,c
  2557  010B64  0E01               	movlw	1
  2558  010B66  6E1B               	movwf	LEDBLINK@port1,c
  2559  010B68  0E00               	movlw	0
  2560  010B6A  6E1E               	movwf	LEDBLINK@port2+1,c
  2561  010B6C  0E02               	movlw	2
  2562  010B6E  6E1D               	movwf	LEDBLINK@port2,c
  2563  010B70  0E00               	movlw	0
  2564  010B72  6E20               	movwf	LEDBLINK@port3+1,c
  2565  010B74  0E02               	movlw	2
  2566  010B76  6E1F               	movwf	LEDBLINK@port3,c
  2567  010B78  0E00               	movlw	0
  2568  010B7A  6E22               	movwf	LEDBLINK@port4+1,c
  2569  010B7C  0E02               	movlw	2
  2570  010B7E  6E21               	movwf	LEDBLINK@port4,c
  2571  010B80  0E00               	movlw	0
  2572  010B82  6E24               	movwf	LEDBLINK@port5+1,c
  2573  010B84  0E00               	movlw	0
  2574  010B86  6E23               	movwf	LEDBLINK@port5,c
  2575  010B88  0E00               	movlw	0
  2576  010B8A  6E26               	movwf	LEDBLINK@port6+1,c
  2577  010B8C  0E02               	movlw	2
  2578  010B8E  6E25               	movwf	LEDBLINK@port6,c
  2579  010B90  0E00               	movlw	0
  2580  010B92  6E28               	movwf	LEDBLINK@port7+1,c
  2581  010B94  0E02               	movlw	2
  2582  010B96  6E27               	movwf	LEDBLINK@port7,c
  2583  010B98  0E00               	movlw	0
  2584  010B9A  6E2A               	movwf	LEDBLINK@port8+1,c
  2585  010B9C  0E02               	movlw	2
  2586  010B9E  6E29               	movwf	LEDBLINK@port8,c
  2587  010BA0  EC4A  F089         	call	_LEDBLINK	;wreg free
  2588                           
  2589                           ;main.c: 156: delayms(led_delay);
  2590  010BA4  C03B  F020         	movff	main@led_delay,delayms@ms
  2591  010BA8  C03C  F021         	movff	main@led_delay+1,delayms@ms+1
  2592  010BAC  EC1B  F08B         	call	_delayms	;wreg free
  2593                           
  2594                           ;main.c: 157: LEDBLINK(2,2,2,2,2,0,2,1);
  2595  010BB0  0E00               	movlw	0
  2596  010BB2  6E1C               	movwf	LEDBLINK@port1+1,c
  2597  010BB4  0E02               	movlw	2
  2598  010BB6  6E1B               	movwf	LEDBLINK@port1,c
  2599  010BB8  0E00               	movlw	0
  2600  010BBA  6E1E               	movwf	LEDBLINK@port2+1,c
  2601  010BBC  0E02               	movlw	2
  2602  010BBE  6E1D               	movwf	LEDBLINK@port2,c
  2603  010BC0  0E00               	movlw	0
  2604  010BC2  6E20               	movwf	LEDBLINK@port3+1,c
  2605  010BC4  0E02               	movlw	2
  2606  010BC6  6E1F               	movwf	LEDBLINK@port3,c
  2607  010BC8  0E00               	movlw	0
  2608  010BCA  6E22               	movwf	LEDBLINK@port4+1,c
  2609  010BCC  0E02               	movlw	2
  2610  010BCE  6E21               	movwf	LEDBLINK@port4,c
  2611  010BD0  0E00               	movlw	0
  2612  010BD2  6E24               	movwf	LEDBLINK@port5+1,c
  2613  010BD4  0E02               	movlw	2
  2614  010BD6  6E23               	movwf	LEDBLINK@port5,c
  2615  010BD8  0E00               	movlw	0
  2616  010BDA  6E26               	movwf	LEDBLINK@port6+1,c
  2617  010BDC  0E00               	movlw	0
  2618  010BDE  6E25               	movwf	LEDBLINK@port6,c
  2619  010BE0  0E00               	movlw	0
  2620  010BE2  6E28               	movwf	LEDBLINK@port7+1,c
  2621  010BE4  0E02               	movlw	2
  2622  010BE6  6E27               	movwf	LEDBLINK@port7,c
  2623  010BE8  0E00               	movlw	0
  2624  010BEA  6E2A               	movwf	LEDBLINK@port8+1,c
  2625  010BEC  0E01               	movlw	1
  2626  010BEE  6E29               	movwf	LEDBLINK@port8,c
  2627  010BF0  EC4A  F089         	call	_LEDBLINK	;wreg free
  2628                           
  2629                           ;main.c: 158: delayms(led_delay);
  2630  010BF4  C03B  F020         	movff	main@led_delay,delayms@ms
  2631  010BF8  C03C  F021         	movff	main@led_delay+1,delayms@ms+1
  2632  010BFC  EC1B  F08B         	call	_delayms	;wreg free
  2633                           
  2634                           ;main.c: 159: LEDBLINK(2,2,2,2,2,0,1,2);
  2635  010C00  0E00               	movlw	0
  2636  010C02  6E1C               	movwf	LEDBLINK@port1+1,c
  2637  010C04  0E02               	movlw	2
  2638  010C06  6E1B               	movwf	LEDBLINK@port1,c
  2639  010C08  0E00               	movlw	0
  2640  010C0A  6E1E               	movwf	LEDBLINK@port2+1,c
  2641  010C0C  0E02               	movlw	2
  2642  010C0E  6E1D               	movwf	LEDBLINK@port2,c
  2643  010C10  0E00               	movlw	0
  2644  010C12  6E20               	movwf	LEDBLINK@port3+1,c
  2645  010C14  0E02               	movlw	2
  2646  010C16  6E1F               	movwf	LEDBLINK@port3,c
  2647  010C18  0E00               	movlw	0
  2648  010C1A  6E22               	movwf	LEDBLINK@port4+1,c
  2649  010C1C  0E02               	movlw	2
  2650  010C1E  6E21               	movwf	LEDBLINK@port4,c
  2651  010C20  0E00               	movlw	0
  2652  010C22  6E24               	movwf	LEDBLINK@port5+1,c
  2653  010C24  0E02               	movlw	2
  2654  010C26  6E23               	movwf	LEDBLINK@port5,c
  2655  010C28  0E00               	movlw	0
  2656  010C2A  6E26               	movwf	LEDBLINK@port6+1,c
  2657  010C2C  0E00               	movlw	0
  2658  010C2E  6E25               	movwf	LEDBLINK@port6,c
  2659  010C30  0E00               	movlw	0
  2660  010C32  6E28               	movwf	LEDBLINK@port7+1,c
  2661  010C34  0E01               	movlw	1
  2662  010C36  6E27               	movwf	LEDBLINK@port7,c
  2663  010C38  0E00               	movlw	0
  2664  010C3A  6E2A               	movwf	LEDBLINK@port8+1,c
  2665  010C3C  0E02               	movlw	2
  2666  010C3E  6E29               	movwf	LEDBLINK@port8,c
  2667  010C40  EC4A  F089         	call	_LEDBLINK	;wreg free
  2668                           
  2669                           ;main.c: 160: delayms(led_delay);
  2670  010C44  C03B  F020         	movff	main@led_delay,delayms@ms
  2671  010C48  C03C  F021         	movff	main@led_delay+1,delayms@ms+1
  2672  010C4C  EC1B  F08B         	call	_delayms	;wreg free
  2673                           
  2674                           ;main.c: 161: LEDBLINK(2,2,2,2,1,0,2,2);
  2675  010C50  0E00               	movlw	0
  2676  010C52  6E1C               	movwf	LEDBLINK@port1+1,c
  2677  010C54  0E02               	movlw	2
  2678  010C56  6E1B               	movwf	LEDBLINK@port1,c
  2679  010C58  0E00               	movlw	0
  2680  010C5A  6E1E               	movwf	LEDBLINK@port2+1,c
  2681  010C5C  0E02               	movlw	2
  2682  010C5E  6E1D               	movwf	LEDBLINK@port2,c
  2683  010C60  0E00               	movlw	0
  2684  010C62  6E20               	movwf	LEDBLINK@port3+1,c
  2685  010C64  0E02               	movlw	2
  2686  010C66  6E1F               	movwf	LEDBLINK@port3,c
  2687  010C68  0E00               	movlw	0
  2688  010C6A  6E22               	movwf	LEDBLINK@port4+1,c
  2689  010C6C  0E02               	movlw	2
  2690  010C6E  6E21               	movwf	LEDBLINK@port4,c
  2691  010C70  0E00               	movlw	0
  2692  010C72  6E24               	movwf	LEDBLINK@port5+1,c
  2693  010C74  0E01               	movlw	1
  2694  010C76  6E23               	movwf	LEDBLINK@port5,c
  2695  010C78  0E00               	movlw	0
  2696  010C7A  6E26               	movwf	LEDBLINK@port6+1,c
  2697  010C7C  0E00               	movlw	0
  2698  010C7E  6E25               	movwf	LEDBLINK@port6,c
  2699  010C80  0E00               	movlw	0
  2700  010C82  6E28               	movwf	LEDBLINK@port7+1,c
  2701  010C84  0E02               	movlw	2
  2702  010C86  6E27               	movwf	LEDBLINK@port7,c
  2703  010C88  0E00               	movlw	0
  2704  010C8A  6E2A               	movwf	LEDBLINK@port8+1,c
  2705  010C8C  0E02               	movlw	2
  2706  010C8E  6E29               	movwf	LEDBLINK@port8,c
  2707  010C90  EC4A  F089         	call	_LEDBLINK	;wreg free
  2708                           
  2709                           ;main.c: 162: delayms(led_delay);
  2710  010C94  C03B  F020         	movff	main@led_delay,delayms@ms
  2711  010C98  C03C  F021         	movff	main@led_delay+1,delayms@ms+1
  2712  010C9C  EC1B  F08B         	call	_delayms	;wreg free
  2713                           
  2714                           ;main.c: 163: LEDBLINK(2,2,2,1,2,0,2,2);
  2715  010CA0  0E00               	movlw	0
  2716  010CA2  6E1C               	movwf	LEDBLINK@port1+1,c
  2717  010CA4  0E02               	movlw	2
  2718  010CA6  6E1B               	movwf	LEDBLINK@port1,c
  2719  010CA8  0E00               	movlw	0
  2720  010CAA  6E1E               	movwf	LEDBLINK@port2+1,c
  2721  010CAC  0E02               	movlw	2
  2722  010CAE  6E1D               	movwf	LEDBLINK@port2,c
  2723  010CB0  0E00               	movlw	0
  2724  010CB2  6E20               	movwf	LEDBLINK@port3+1,c
  2725  010CB4  0E02               	movlw	2
  2726  010CB6  6E1F               	movwf	LEDBLINK@port3,c
  2727  010CB8  0E00               	movlw	0
  2728  010CBA  6E22               	movwf	LEDBLINK@port4+1,c
  2729  010CBC  0E01               	movlw	1
  2730  010CBE  6E21               	movwf	LEDBLINK@port4,c
  2731  010CC0  0E00               	movlw	0
  2732  010CC2  6E24               	movwf	LEDBLINK@port5+1,c
  2733  010CC4  0E02               	movlw	2
  2734  010CC6  6E23               	movwf	LEDBLINK@port5,c
  2735  010CC8  0E00               	movlw	0
  2736  010CCA  6E26               	movwf	LEDBLINK@port6+1,c
  2737  010CCC  0E00               	movlw	0
  2738  010CCE  6E25               	movwf	LEDBLINK@port6,c
  2739  010CD0  0E00               	movlw	0
  2740  010CD2  6E28               	movwf	LEDBLINK@port7+1,c
  2741  010CD4  0E02               	movlw	2
  2742  010CD6  6E27               	movwf	LEDBLINK@port7,c
  2743  010CD8  0E00               	movlw	0
  2744  010CDA  6E2A               	movwf	LEDBLINK@port8+1,c
  2745  010CDC  0E02               	movlw	2
  2746  010CDE  6E29               	movwf	LEDBLINK@port8,c
  2747  010CE0  EC4A  F089         	call	_LEDBLINK	;wreg free
  2748                           
  2749                           ;main.c: 164: delayms(led_delay);
  2750  010CE4  C03B  F020         	movff	main@led_delay,delayms@ms
  2751  010CE8  C03C  F021         	movff	main@led_delay+1,delayms@ms+1
  2752  010CEC  EC1B  F08B         	call	_delayms	;wreg free
  2753                           
  2754                           ;main.c: 165: LEDBLINK(2,2,1,2,2,0,2,2);
  2755  010CF0  0E00               	movlw	0
  2756  010CF2  6E1C               	movwf	LEDBLINK@port1+1,c
  2757  010CF4  0E02               	movlw	2
  2758  010CF6  6E1B               	movwf	LEDBLINK@port1,c
  2759  010CF8  0E00               	movlw	0
  2760  010CFA  6E1E               	movwf	LEDBLINK@port2+1,c
  2761  010CFC  0E02               	movlw	2
  2762  010CFE  6E1D               	movwf	LEDBLINK@port2,c
  2763  010D00  0E00               	movlw	0
  2764  010D02  6E20               	movwf	LEDBLINK@port3+1,c
  2765  010D04  0E01               	movlw	1
  2766  010D06  6E1F               	movwf	LEDBLINK@port3,c
  2767  010D08  0E00               	movlw	0
  2768  010D0A  6E22               	movwf	LEDBLINK@port4+1,c
  2769  010D0C  0E02               	movlw	2
  2770  010D0E  6E21               	movwf	LEDBLINK@port4,c
  2771  010D10  0E00               	movlw	0
  2772  010D12  6E24               	movwf	LEDBLINK@port5+1,c
  2773  010D14  0E02               	movlw	2
  2774  010D16  6E23               	movwf	LEDBLINK@port5,c
  2775  010D18  0E00               	movlw	0
  2776  010D1A  6E26               	movwf	LEDBLINK@port6+1,c
  2777  010D1C  0E00               	movlw	0
  2778  010D1E  6E25               	movwf	LEDBLINK@port6,c
  2779  010D20  0E00               	movlw	0
  2780  010D22  6E28               	movwf	LEDBLINK@port7+1,c
  2781  010D24  0E02               	movlw	2
  2782  010D26  6E27               	movwf	LEDBLINK@port7,c
  2783  010D28  0E00               	movlw	0
  2784  010D2A  6E2A               	movwf	LEDBLINK@port8+1,c
  2785  010D2C  0E02               	movlw	2
  2786  010D2E  6E29               	movwf	LEDBLINK@port8,c
  2787  010D30  EC4A  F089         	call	_LEDBLINK	;wreg free
  2788                           
  2789                           ;main.c: 166: delayms(led_delay);
  2790  010D34  C03B  F020         	movff	main@led_delay,delayms@ms
  2791  010D38  C03C  F021         	movff	main@led_delay+1,delayms@ms+1
  2792  010D3C  EC1B  F08B         	call	_delayms	;wreg free
  2793                           
  2794                           ;main.c: 167: LEDBLINK(2,1,2,2,2,0,2,2);
  2795  010D40  0E00               	movlw	0
  2796  010D42  6E1C               	movwf	LEDBLINK@port1+1,c
  2797  010D44  0E02               	movlw	2
  2798  010D46  6E1B               	movwf	LEDBLINK@port1,c
  2799  010D48  0E00               	movlw	0
  2800  010D4A  6E1E               	movwf	LEDBLINK@port2+1,c
  2801  010D4C  0E01               	movlw	1
  2802  010D4E  6E1D               	movwf	LEDBLINK@port2,c
  2803  010D50  0E00               	movlw	0
  2804  010D52  6E20               	movwf	LEDBLINK@port3+1,c
  2805  010D54  0E02               	movlw	2
  2806  010D56  6E1F               	movwf	LEDBLINK@port3,c
  2807  010D58  0E00               	movlw	0
  2808  010D5A  6E22               	movwf	LEDBLINK@port4+1,c
  2809  010D5C  0E02               	movlw	2
  2810  010D5E  6E21               	movwf	LEDBLINK@port4,c
  2811  010D60  0E00               	movlw	0
  2812  010D62  6E24               	movwf	LEDBLINK@port5+1,c
  2813  010D64  0E02               	movlw	2
  2814  010D66  6E23               	movwf	LEDBLINK@port5,c
  2815  010D68  0E00               	movlw	0
  2816  010D6A  6E26               	movwf	LEDBLINK@port6+1,c
  2817  010D6C  0E00               	movlw	0
  2818  010D6E  6E25               	movwf	LEDBLINK@port6,c
  2819  010D70  0E00               	movlw	0
  2820  010D72  6E28               	movwf	LEDBLINK@port7+1,c
  2821  010D74  0E02               	movlw	2
  2822  010D76  6E27               	movwf	LEDBLINK@port7,c
  2823  010D78  0E00               	movlw	0
  2824  010D7A  6E2A               	movwf	LEDBLINK@port8+1,c
  2825  010D7C  0E02               	movlw	2
  2826  010D7E  6E29               	movwf	LEDBLINK@port8,c
  2827  010D80  EC4A  F089         	call	_LEDBLINK	;wreg free
  2828                           
  2829                           ;main.c: 168: delayms(led_delay);
  2830  010D84  C03B  F020         	movff	main@led_delay,delayms@ms
  2831  010D88  C03C  F021         	movff	main@led_delay+1,delayms@ms+1
  2832  010D8C  EC1B  F08B         	call	_delayms	;wreg free
  2833                           
  2834                           ;main.c: 169: LEDBLINK(2,1,2,2,2,0,2,2);
  2835  010D90  0E00               	movlw	0
  2836  010D92  6E1C               	movwf	LEDBLINK@port1+1,c
  2837  010D94  0E02               	movlw	2
  2838  010D96  6E1B               	movwf	LEDBLINK@port1,c
  2839  010D98  0E00               	movlw	0
  2840  010D9A  6E1E               	movwf	LEDBLINK@port2+1,c
  2841  010D9C  0E01               	movlw	1
  2842  010D9E  6E1D               	movwf	LEDBLINK@port2,c
  2843  010DA0  0E00               	movlw	0
  2844  010DA2  6E20               	movwf	LEDBLINK@port3+1,c
  2845  010DA4  0E02               	movlw	2
  2846  010DA6  6E1F               	movwf	LEDBLINK@port3,c
  2847  010DA8  0E00               	movlw	0
  2848  010DAA  6E22               	movwf	LEDBLINK@port4+1,c
  2849  010DAC  0E02               	movlw	2
  2850  010DAE  6E21               	movwf	LEDBLINK@port4,c
  2851  010DB0  0E00               	movlw	0
  2852  010DB2  6E24               	movwf	LEDBLINK@port5+1,c
  2853  010DB4  0E02               	movlw	2
  2854  010DB6  6E23               	movwf	LEDBLINK@port5,c
  2855  010DB8  0E00               	movlw	0
  2856  010DBA  6E26               	movwf	LEDBLINK@port6+1,c
  2857  010DBC  0E00               	movlw	0
  2858  010DBE  6E25               	movwf	LEDBLINK@port6,c
  2859  010DC0  0E00               	movlw	0
  2860  010DC2  6E28               	movwf	LEDBLINK@port7+1,c
  2861  010DC4  0E02               	movlw	2
  2862  010DC6  6E27               	movwf	LEDBLINK@port7,c
  2863  010DC8  0E00               	movlw	0
  2864  010DCA  6E2A               	movwf	LEDBLINK@port8+1,c
  2865  010DCC  0E02               	movlw	2
  2866  010DCE  6E29               	movwf	LEDBLINK@port8,c
  2867  010DD0  EC4A  F089         	call	_LEDBLINK	;wreg free
  2868                           
  2869                           ;main.c: 170: delayms(led_delay);
  2870  010DD4  C03B  F020         	movff	main@led_delay,delayms@ms
  2871  010DD8  C03C  F021         	movff	main@led_delay+1,delayms@ms+1
  2872  010DDC  EC1B  F08B         	call	_delayms	;wreg free
  2873                           
  2874                           ;main.c: 171: LEDBLINK(1,2,2,2,2,0,2,2);
  2875  010DE0  0E00               	movlw	0
  2876  010DE2  6E1C               	movwf	LEDBLINK@port1+1,c
  2877  010DE4  0E01               	movlw	1
  2878  010DE6  6E1B               	movwf	LEDBLINK@port1,c
  2879  010DE8  0E00               	movlw	0
  2880  010DEA  6E1E               	movwf	LEDBLINK@port2+1,c
  2881  010DEC  0E02               	movlw	2
  2882  010DEE  6E1D               	movwf	LEDBLINK@port2,c
  2883  010DF0  0E00               	movlw	0
  2884  010DF2  6E20               	movwf	LEDBLINK@port3+1,c
  2885  010DF4  0E02               	movlw	2
  2886  010DF6  6E1F               	movwf	LEDBLINK@port3,c
  2887  010DF8  0E00               	movlw	0
  2888  010DFA  6E22               	movwf	LEDBLINK@port4+1,c
  2889  010DFC  0E02               	movlw	2
  2890  010DFE  6E21               	movwf	LEDBLINK@port4,c
  2891  010E00  0E00               	movlw	0
  2892  010E02  6E24               	movwf	LEDBLINK@port5+1,c
  2893  010E04  0E02               	movlw	2
  2894  010E06  6E23               	movwf	LEDBLINK@port5,c
  2895  010E08  0E00               	movlw	0
  2896  010E0A  6E26               	movwf	LEDBLINK@port6+1,c
  2897  010E0C  0E00               	movlw	0
  2898  010E0E  6E25               	movwf	LEDBLINK@port6,c
  2899  010E10  0E00               	movlw	0
  2900  010E12  6E28               	movwf	LEDBLINK@port7+1,c
  2901  010E14  0E02               	movlw	2
  2902  010E16  6E27               	movwf	LEDBLINK@port7,c
  2903  010E18  0E00               	movlw	0
  2904  010E1A  6E2A               	movwf	LEDBLINK@port8+1,c
  2905  010E1C  0E02               	movlw	2
  2906  010E1E  6E29               	movwf	LEDBLINK@port8,c
  2907  010E20  EC4A  F089         	call	_LEDBLINK	;wreg free
  2908                           
  2909                           ;main.c: 173: delayms(led_delay);
  2910  010E24  C03B  F020         	movff	main@led_delay,delayms@ms
  2911  010E28  C03C  F021         	movff	main@led_delay+1,delayms@ms+1
  2912  010E2C  EC1B  F08B         	call	_delayms	;wreg free
  2913                           
  2914                           ;main.c: 174: LEDBLINK(2,2,2,2,2,2,0,1);
  2915  010E30  0E00               	movlw	0
  2916  010E32  6E1C               	movwf	LEDBLINK@port1+1,c
  2917  010E34  0E02               	movlw	2
  2918  010E36  6E1B               	movwf	LEDBLINK@port1,c
  2919  010E38  0E00               	movlw	0
  2920  010E3A  6E1E               	movwf	LEDBLINK@port2+1,c
  2921  010E3C  0E02               	movlw	2
  2922  010E3E  6E1D               	movwf	LEDBLINK@port2,c
  2923  010E40  0E00               	movlw	0
  2924  010E42  6E20               	movwf	LEDBLINK@port3+1,c
  2925  010E44  0E02               	movlw	2
  2926  010E46  6E1F               	movwf	LEDBLINK@port3,c
  2927  010E48  0E00               	movlw	0
  2928  010E4A  6E22               	movwf	LEDBLINK@port4+1,c
  2929  010E4C  0E02               	movlw	2
  2930  010E4E  6E21               	movwf	LEDBLINK@port4,c
  2931  010E50  0E00               	movlw	0
  2932  010E52  6E24               	movwf	LEDBLINK@port5+1,c
  2933  010E54  0E02               	movlw	2
  2934  010E56  6E23               	movwf	LEDBLINK@port5,c
  2935  010E58  0E00               	movlw	0
  2936  010E5A  6E26               	movwf	LEDBLINK@port6+1,c
  2937  010E5C  0E02               	movlw	2
  2938  010E5E  6E25               	movwf	LEDBLINK@port6,c
  2939  010E60  0E00               	movlw	0
  2940  010E62  6E28               	movwf	LEDBLINK@port7+1,c
  2941  010E64  0E00               	movlw	0
  2942  010E66  6E27               	movwf	LEDBLINK@port7,c
  2943  010E68  0E00               	movlw	0
  2944  010E6A  6E2A               	movwf	LEDBLINK@port8+1,c
  2945  010E6C  0E01               	movlw	1
  2946  010E6E  6E29               	movwf	LEDBLINK@port8,c
  2947  010E70  EC4A  F089         	call	_LEDBLINK	;wreg free
  2948                           
  2949                           ;main.c: 175: delayms(led_delay);
  2950  010E74  C03B  F020         	movff	main@led_delay,delayms@ms
  2951  010E78  C03C  F021         	movff	main@led_delay+1,delayms@ms+1
  2952  010E7C  EC1B  F08B         	call	_delayms	;wreg free
  2953                           
  2954                           ;main.c: 176: LEDBLINK(2,2,2,2,2,1,0,2);
  2955  010E80  0E00               	movlw	0
  2956  010E82  6E1C               	movwf	LEDBLINK@port1+1,c
  2957  010E84  0E02               	movlw	2
  2958  010E86  6E1B               	movwf	LEDBLINK@port1,c
  2959  010E88  0E00               	movlw	0
  2960  010E8A  6E1E               	movwf	LEDBLINK@port2+1,c
  2961  010E8C  0E02               	movlw	2
  2962  010E8E  6E1D               	movwf	LEDBLINK@port2,c
  2963  010E90  0E00               	movlw	0
  2964  010E92  6E20               	movwf	LEDBLINK@port3+1,c
  2965  010E94  0E02               	movlw	2
  2966  010E96  6E1F               	movwf	LEDBLINK@port3,c
  2967  010E98  0E00               	movlw	0
  2968  010E9A  6E22               	movwf	LEDBLINK@port4+1,c
  2969  010E9C  0E02               	movlw	2
  2970  010E9E  6E21               	movwf	LEDBLINK@port4,c
  2971  010EA0  0E00               	movlw	0
  2972  010EA2  6E24               	movwf	LEDBLINK@port5+1,c
  2973  010EA4  0E02               	movlw	2
  2974  010EA6  6E23               	movwf	LEDBLINK@port5,c
  2975  010EA8  0E00               	movlw	0
  2976  010EAA  6E26               	movwf	LEDBLINK@port6+1,c
  2977  010EAC  0E01               	movlw	1
  2978  010EAE  6E25               	movwf	LEDBLINK@port6,c
  2979  010EB0  0E00               	movlw	0
  2980  010EB2  6E28               	movwf	LEDBLINK@port7+1,c
  2981  010EB4  0E00               	movlw	0
  2982  010EB6  6E27               	movwf	LEDBLINK@port7,c
  2983  010EB8  0E00               	movlw	0
  2984  010EBA  6E2A               	movwf	LEDBLINK@port8+1,c
  2985  010EBC  0E02               	movlw	2
  2986  010EBE  6E29               	movwf	LEDBLINK@port8,c
  2987  010EC0  EC4A  F089         	call	_LEDBLINK	;wreg free
  2988                           
  2989                           ;main.c: 177: delayms(led_delay);
  2990  010EC4  C03B  F020         	movff	main@led_delay,delayms@ms
  2991  010EC8  C03C  F021         	movff	main@led_delay+1,delayms@ms+1
  2992  010ECC  EC1B  F08B         	call	_delayms	;wreg free
  2993                           
  2994                           ;main.c: 178: LEDBLINK(2,2,2,2,1,2,0,2);
  2995  010ED0  0E00               	movlw	0
  2996  010ED2  6E1C               	movwf	LEDBLINK@port1+1,c
  2997  010ED4  0E02               	movlw	2
  2998  010ED6  6E1B               	movwf	LEDBLINK@port1,c
  2999  010ED8  0E00               	movlw	0
  3000  010EDA  6E1E               	movwf	LEDBLINK@port2+1,c
  3001  010EDC  0E02               	movlw	2
  3002  010EDE  6E1D               	movwf	LEDBLINK@port2,c
  3003  010EE0  0E00               	movlw	0
  3004  010EE2  6E20               	movwf	LEDBLINK@port3+1,c
  3005  010EE4  0E02               	movlw	2
  3006  010EE6  6E1F               	movwf	LEDBLINK@port3,c
  3007  010EE8  0E00               	movlw	0
  3008  010EEA  6E22               	movwf	LEDBLINK@port4+1,c
  3009  010EEC  0E02               	movlw	2
  3010  010EEE  6E21               	movwf	LEDBLINK@port4,c
  3011  010EF0  0E00               	movlw	0
  3012  010EF2  6E24               	movwf	LEDBLINK@port5+1,c
  3013  010EF4  0E01               	movlw	1
  3014  010EF6  6E23               	movwf	LEDBLINK@port5,c
  3015  010EF8  0E00               	movlw	0
  3016  010EFA  6E26               	movwf	LEDBLINK@port6+1,c
  3017  010EFC  0E02               	movlw	2
  3018  010EFE  6E25               	movwf	LEDBLINK@port6,c
  3019  010F00  0E00               	movlw	0
  3020  010F02  6E28               	movwf	LEDBLINK@port7+1,c
  3021  010F04  0E00               	movlw	0
  3022  010F06  6E27               	movwf	LEDBLINK@port7,c
  3023  010F08  0E00               	movlw	0
  3024  010F0A  6E2A               	movwf	LEDBLINK@port8+1,c
  3025  010F0C  0E02               	movlw	2
  3026  010F0E  6E29               	movwf	LEDBLINK@port8,c
  3027  010F10  EC4A  F089         	call	_LEDBLINK	;wreg free
  3028                           
  3029                           ;main.c: 179: delayms(led_delay);
  3030  010F14  C03B  F020         	movff	main@led_delay,delayms@ms
  3031  010F18  C03C  F021         	movff	main@led_delay+1,delayms@ms+1
  3032  010F1C  EC1B  F08B         	call	_delayms	;wreg free
  3033                           
  3034                           ;main.c: 180: LEDBLINK(2,2,2,1,2,2,0,2);
  3035  010F20  0E00               	movlw	0
  3036  010F22  6E1C               	movwf	LEDBLINK@port1+1,c
  3037  010F24  0E02               	movlw	2
  3038  010F26  6E1B               	movwf	LEDBLINK@port1,c
  3039  010F28  0E00               	movlw	0
  3040  010F2A  6E1E               	movwf	LEDBLINK@port2+1,c
  3041  010F2C  0E02               	movlw	2
  3042  010F2E  6E1D               	movwf	LEDBLINK@port2,c
  3043  010F30  0E00               	movlw	0
  3044  010F32  6E20               	movwf	LEDBLINK@port3+1,c
  3045  010F34  0E02               	movlw	2
  3046  010F36  6E1F               	movwf	LEDBLINK@port3,c
  3047  010F38  0E00               	movlw	0
  3048  010F3A  6E22               	movwf	LEDBLINK@port4+1,c
  3049  010F3C  0E01               	movlw	1
  3050  010F3E  6E21               	movwf	LEDBLINK@port4,c
  3051  010F40  0E00               	movlw	0
  3052  010F42  6E24               	movwf	LEDBLINK@port5+1,c
  3053  010F44  0E02               	movlw	2
  3054  010F46  6E23               	movwf	LEDBLINK@port5,c
  3055  010F48  0E00               	movlw	0
  3056  010F4A  6E26               	movwf	LEDBLINK@port6+1,c
  3057  010F4C  0E02               	movlw	2
  3058  010F4E  6E25               	movwf	LEDBLINK@port6,c
  3059  010F50  0E00               	movlw	0
  3060  010F52  6E28               	movwf	LEDBLINK@port7+1,c
  3061  010F54  0E00               	movlw	0
  3062  010F56  6E27               	movwf	LEDBLINK@port7,c
  3063  010F58  0E00               	movlw	0
  3064  010F5A  6E2A               	movwf	LEDBLINK@port8+1,c
  3065  010F5C  0E02               	movlw	2
  3066  010F5E  6E29               	movwf	LEDBLINK@port8,c
  3067  010F60  EC4A  F089         	call	_LEDBLINK	;wreg free
  3068                           
  3069                           ;main.c: 181: delayms(led_delay);
  3070  010F64  C03B  F020         	movff	main@led_delay,delayms@ms
  3071  010F68  C03C  F021         	movff	main@led_delay+1,delayms@ms+1
  3072  010F6C  EC1B  F08B         	call	_delayms	;wreg free
  3073                           
  3074                           ;main.c: 182: LEDBLINK(2,2,1,2,2,2,0,2);
  3075  010F70  0E00               	movlw	0
  3076  010F72  6E1C               	movwf	LEDBLINK@port1+1,c
  3077  010F74  0E02               	movlw	2
  3078  010F76  6E1B               	movwf	LEDBLINK@port1,c
  3079  010F78  0E00               	movlw	0
  3080  010F7A  6E1E               	movwf	LEDBLINK@port2+1,c
  3081  010F7C  0E02               	movlw	2
  3082  010F7E  6E1D               	movwf	LEDBLINK@port2,c
  3083  010F80  0E00               	movlw	0
  3084  010F82  6E20               	movwf	LEDBLINK@port3+1,c
  3085  010F84  0E01               	movlw	1
  3086  010F86  6E1F               	movwf	LEDBLINK@port3,c
  3087  010F88  0E00               	movlw	0
  3088  010F8A  6E22               	movwf	LEDBLINK@port4+1,c
  3089  010F8C  0E02               	movlw	2
  3090  010F8E  6E21               	movwf	LEDBLINK@port4,c
  3091  010F90  0E00               	movlw	0
  3092  010F92  6E24               	movwf	LEDBLINK@port5+1,c
  3093  010F94  0E02               	movlw	2
  3094  010F96  6E23               	movwf	LEDBLINK@port5,c
  3095  010F98  0E00               	movlw	0
  3096  010F9A  6E26               	movwf	LEDBLINK@port6+1,c
  3097  010F9C  0E02               	movlw	2
  3098  010F9E  6E25               	movwf	LEDBLINK@port6,c
  3099  010FA0  0E00               	movlw	0
  3100  010FA2  6E28               	movwf	LEDBLINK@port7+1,c
  3101  010FA4  0E00               	movlw	0
  3102  010FA6  6E27               	movwf	LEDBLINK@port7,c
  3103  010FA8  0E00               	movlw	0
  3104  010FAA  6E2A               	movwf	LEDBLINK@port8+1,c
  3105  010FAC  0E02               	movlw	2
  3106  010FAE  6E29               	movwf	LEDBLINK@port8,c
  3107  010FB0  EC4A  F089         	call	_LEDBLINK	;wreg free
  3108                           
  3109                           ;main.c: 183: delayms(led_delay);
  3110  010FB4  C03B  F020         	movff	main@led_delay,delayms@ms
  3111  010FB8  C03C  F021         	movff	main@led_delay+1,delayms@ms+1
  3112  010FBC  EC1B  F08B         	call	_delayms	;wreg free
  3113                           
  3114                           ;main.c: 184: LEDBLINK(2,1,2,2,2,2,0,2);
  3115  010FC0  0E00               	movlw	0
  3116  010FC2  6E1C               	movwf	LEDBLINK@port1+1,c
  3117  010FC4  0E02               	movlw	2
  3118  010FC6  6E1B               	movwf	LEDBLINK@port1,c
  3119  010FC8  0E00               	movlw	0
  3120  010FCA  6E1E               	movwf	LEDBLINK@port2+1,c
  3121  010FCC  0E01               	movlw	1
  3122  010FCE  6E1D               	movwf	LEDBLINK@port2,c
  3123  010FD0  0E00               	movlw	0
  3124  010FD2  6E20               	movwf	LEDBLINK@port3+1,c
  3125  010FD4  0E02               	movlw	2
  3126  010FD6  6E1F               	movwf	LEDBLINK@port3,c
  3127  010FD8  0E00               	movlw	0
  3128  010FDA  6E22               	movwf	LEDBLINK@port4+1,c
  3129  010FDC  0E02               	movlw	2
  3130  010FDE  6E21               	movwf	LEDBLINK@port4,c
  3131  010FE0  0E00               	movlw	0
  3132  010FE2  6E24               	movwf	LEDBLINK@port5+1,c
  3133  010FE4  0E02               	movlw	2
  3134  010FE6  6E23               	movwf	LEDBLINK@port5,c
  3135  010FE8  0E00               	movlw	0
  3136  010FEA  6E26               	movwf	LEDBLINK@port6+1,c
  3137  010FEC  0E02               	movlw	2
  3138  010FEE  6E25               	movwf	LEDBLINK@port6,c
  3139  010FF0  0E00               	movlw	0
  3140  010FF2  6E28               	movwf	LEDBLINK@port7+1,c
  3141  010FF4  0E00               	movlw	0
  3142  010FF6  6E27               	movwf	LEDBLINK@port7,c
  3143  010FF8  0E00               	movlw	0
  3144  010FFA  6E2A               	movwf	LEDBLINK@port8+1,c
  3145  010FFC  0E02               	movlw	2
  3146  010FFE  6E29               	movwf	LEDBLINK@port8,c
  3147  011000  EC4A  F089         	call	_LEDBLINK	;wreg free
  3148                           
  3149                           ;main.c: 185: delayms(led_delay);
  3150  011004  C03B  F020         	movff	main@led_delay,delayms@ms
  3151  011008  C03C  F021         	movff	main@led_delay+1,delayms@ms+1
  3152  01100C  EC1B  F08B         	call	_delayms	;wreg free
  3153                           
  3154                           ;main.c: 186: LEDBLINK(1,2,2,2,2,2,0,2);
  3155  011010  0E00               	movlw	0
  3156  011012  6E1C               	movwf	LEDBLINK@port1+1,c
  3157  011014  0E01               	movlw	1
  3158  011016  6E1B               	movwf	LEDBLINK@port1,c
  3159  011018  0E00               	movlw	0
  3160  01101A  6E1E               	movwf	LEDBLINK@port2+1,c
  3161  01101C  0E02               	movlw	2
  3162  01101E  6E1D               	movwf	LEDBLINK@port2,c
  3163  011020  0E00               	movlw	0
  3164  011022  6E20               	movwf	LEDBLINK@port3+1,c
  3165  011024  0E02               	movlw	2
  3166  011026  6E1F               	movwf	LEDBLINK@port3,c
  3167  011028  0E00               	movlw	0
  3168  01102A  6E22               	movwf	LEDBLINK@port4+1,c
  3169  01102C  0E02               	movlw	2
  3170  01102E  6E21               	movwf	LEDBLINK@port4,c
  3171  011030  0E00               	movlw	0
  3172  011032  6E24               	movwf	LEDBLINK@port5+1,c
  3173  011034  0E02               	movlw	2
  3174  011036  6E23               	movwf	LEDBLINK@port5,c
  3175  011038  0E00               	movlw	0
  3176  01103A  6E26               	movwf	LEDBLINK@port6+1,c
  3177  01103C  0E02               	movlw	2
  3178  01103E  6E25               	movwf	LEDBLINK@port6,c
  3179  011040  0E00               	movlw	0
  3180  011042  6E28               	movwf	LEDBLINK@port7+1,c
  3181  011044  0E00               	movlw	0
  3182  011046  6E27               	movwf	LEDBLINK@port7,c
  3183  011048  0E00               	movlw	0
  3184  01104A  6E2A               	movwf	LEDBLINK@port8+1,c
  3185  01104C  0E02               	movlw	2
  3186  01104E  6E29               	movwf	LEDBLINK@port8,c
  3187  011050  EC4A  F089         	call	_LEDBLINK	;wreg free
  3188                           
  3189                           ;main.c: 187: delayms(led_delay);
  3190  011054  C03B  F020         	movff	main@led_delay,delayms@ms
  3191  011058  C03C  F021         	movff	main@led_delay+1,delayms@ms+1
  3192  01105C  EC1B  F08B         	call	_delayms	;wreg free
  3193                           
  3194                           ;main.c: 189: LEDBLINK(2,2,2,2,2,2,1,0);
  3195  011060  0E00               	movlw	0
  3196  011062  6E1C               	movwf	LEDBLINK@port1+1,c
  3197  011064  0E02               	movlw	2
  3198  011066  6E1B               	movwf	LEDBLINK@port1,c
  3199  011068  0E00               	movlw	0
  3200  01106A  6E1E               	movwf	LEDBLINK@port2+1,c
  3201  01106C  0E02               	movlw	2
  3202  01106E  6E1D               	movwf	LEDBLINK@port2,c
  3203  011070  0E00               	movlw	0
  3204  011072  6E20               	movwf	LEDBLINK@port3+1,c
  3205  011074  0E02               	movlw	2
  3206  011076  6E1F               	movwf	LEDBLINK@port3,c
  3207  011078  0E00               	movlw	0
  3208  01107A  6E22               	movwf	LEDBLINK@port4+1,c
  3209  01107C  0E02               	movlw	2
  3210  01107E  6E21               	movwf	LEDBLINK@port4,c
  3211  011080  0E00               	movlw	0
  3212  011082  6E24               	movwf	LEDBLINK@port5+1,c
  3213  011084  0E02               	movlw	2
  3214  011086  6E23               	movwf	LEDBLINK@port5,c
  3215  011088  0E00               	movlw	0
  3216  01108A  6E26               	movwf	LEDBLINK@port6+1,c
  3217  01108C  0E02               	movlw	2
  3218  01108E  6E25               	movwf	LEDBLINK@port6,c
  3219  011090  0E00               	movlw	0
  3220  011092  6E28               	movwf	LEDBLINK@port7+1,c
  3221  011094  0E01               	movlw	1
  3222  011096  6E27               	movwf	LEDBLINK@port7,c
  3223  011098  0E00               	movlw	0
  3224  01109A  6E2A               	movwf	LEDBLINK@port8+1,c
  3225  01109C  0E00               	movlw	0
  3226  01109E  6E29               	movwf	LEDBLINK@port8,c
  3227  0110A0  EC4A  F089         	call	_LEDBLINK	;wreg free
  3228                           
  3229                           ;main.c: 190: delayms(led_delay);
  3230  0110A4  C03B  F020         	movff	main@led_delay,delayms@ms
  3231  0110A8  C03C  F021         	movff	main@led_delay+1,delayms@ms+1
  3232  0110AC  EC1B  F08B         	call	_delayms	;wreg free
  3233                           
  3234                           ;main.c: 191: LEDBLINK(2,2,2,2,2,1,2,0);
  3235  0110B0  0E00               	movlw	0
  3236  0110B2  6E1C               	movwf	LEDBLINK@port1+1,c
  3237  0110B4  0E02               	movlw	2
  3238  0110B6  6E1B               	movwf	LEDBLINK@port1,c
  3239  0110B8  0E00               	movlw	0
  3240  0110BA  6E1E               	movwf	LEDBLINK@port2+1,c
  3241  0110BC  0E02               	movlw	2
  3242  0110BE  6E1D               	movwf	LEDBLINK@port2,c
  3243  0110C0  0E00               	movlw	0
  3244  0110C2  6E20               	movwf	LEDBLINK@port3+1,c
  3245  0110C4  0E02               	movlw	2
  3246  0110C6  6E1F               	movwf	LEDBLINK@port3,c
  3247  0110C8  0E00               	movlw	0
  3248  0110CA  6E22               	movwf	LEDBLINK@port4+1,c
  3249  0110CC  0E02               	movlw	2
  3250  0110CE  6E21               	movwf	LEDBLINK@port4,c
  3251  0110D0  0E00               	movlw	0
  3252  0110D2  6E24               	movwf	LEDBLINK@port5+1,c
  3253  0110D4  0E02               	movlw	2
  3254  0110D6  6E23               	movwf	LEDBLINK@port5,c
  3255  0110D8  0E00               	movlw	0
  3256  0110DA  6E26               	movwf	LEDBLINK@port6+1,c
  3257  0110DC  0E01               	movlw	1
  3258  0110DE  6E25               	movwf	LEDBLINK@port6,c
  3259  0110E0  0E00               	movlw	0
  3260  0110E2  6E28               	movwf	LEDBLINK@port7+1,c
  3261  0110E4  0E02               	movlw	2
  3262  0110E6  6E27               	movwf	LEDBLINK@port7,c
  3263  0110E8  0E00               	movlw	0
  3264  0110EA  6E2A               	movwf	LEDBLINK@port8+1,c
  3265  0110EC  0E00               	movlw	0
  3266  0110EE  6E29               	movwf	LEDBLINK@port8,c
  3267  0110F0  EC4A  F089         	call	_LEDBLINK	;wreg free
  3268                           
  3269                           ;main.c: 192: delayms(led_delay);
  3270  0110F4  C03B  F020         	movff	main@led_delay,delayms@ms
  3271  0110F8  C03C  F021         	movff	main@led_delay+1,delayms@ms+1
  3272  0110FC  EC1B  F08B         	call	_delayms	;wreg free
  3273                           
  3274                           ;main.c: 193: LEDBLINK(2,2,2,2,1,2,2,0);
  3275  011100  0E00               	movlw	0
  3276  011102  6E1C               	movwf	LEDBLINK@port1+1,c
  3277  011104  0E02               	movlw	2
  3278  011106  6E1B               	movwf	LEDBLINK@port1,c
  3279  011108  0E00               	movlw	0
  3280  01110A  6E1E               	movwf	LEDBLINK@port2+1,c
  3281  01110C  0E02               	movlw	2
  3282  01110E  6E1D               	movwf	LEDBLINK@port2,c
  3283  011110  0E00               	movlw	0
  3284  011112  6E20               	movwf	LEDBLINK@port3+1,c
  3285  011114  0E02               	movlw	2
  3286  011116  6E1F               	movwf	LEDBLINK@port3,c
  3287  011118  0E00               	movlw	0
  3288  01111A  6E22               	movwf	LEDBLINK@port4+1,c
  3289  01111C  0E02               	movlw	2
  3290  01111E  6E21               	movwf	LEDBLINK@port4,c
  3291  011120  0E00               	movlw	0
  3292  011122  6E24               	movwf	LEDBLINK@port5+1,c
  3293  011124  0E01               	movlw	1
  3294  011126  6E23               	movwf	LEDBLINK@port5,c
  3295  011128  0E00               	movlw	0
  3296  01112A  6E26               	movwf	LEDBLINK@port6+1,c
  3297  01112C  0E02               	movlw	2
  3298  01112E  6E25               	movwf	LEDBLINK@port6,c
  3299  011130  0E00               	movlw	0
  3300  011132  6E28               	movwf	LEDBLINK@port7+1,c
  3301  011134  0E02               	movlw	2
  3302  011136  6E27               	movwf	LEDBLINK@port7,c
  3303  011138  0E00               	movlw	0
  3304  01113A  6E2A               	movwf	LEDBLINK@port8+1,c
  3305  01113C  0E00               	movlw	0
  3306  01113E  6E29               	movwf	LEDBLINK@port8,c
  3307  011140  EC4A  F089         	call	_LEDBLINK	;wreg free
  3308                           
  3309                           ;main.c: 194: delayms(led_delay);
  3310  011144  C03B  F020         	movff	main@led_delay,delayms@ms
  3311  011148  C03C  F021         	movff	main@led_delay+1,delayms@ms+1
  3312  01114C  EC1B  F08B         	call	_delayms	;wreg free
  3313                           
  3314                           ;main.c: 195: LEDBLINK(2,2,2,1,2,2,2,0);
  3315  011150  0E00               	movlw	0
  3316  011152  6E1C               	movwf	LEDBLINK@port1+1,c
  3317  011154  0E02               	movlw	2
  3318  011156  6E1B               	movwf	LEDBLINK@port1,c
  3319  011158  0E00               	movlw	0
  3320  01115A  6E1E               	movwf	LEDBLINK@port2+1,c
  3321  01115C  0E02               	movlw	2
  3322  01115E  6E1D               	movwf	LEDBLINK@port2,c
  3323  011160  0E00               	movlw	0
  3324  011162  6E20               	movwf	LEDBLINK@port3+1,c
  3325  011164  0E02               	movlw	2
  3326  011166  6E1F               	movwf	LEDBLINK@port3,c
  3327  011168  0E00               	movlw	0
  3328  01116A  6E22               	movwf	LEDBLINK@port4+1,c
  3329  01116C  0E01               	movlw	1
  3330  01116E  6E21               	movwf	LEDBLINK@port4,c
  3331  011170  0E00               	movlw	0
  3332  011172  6E24               	movwf	LEDBLINK@port5+1,c
  3333  011174  0E02               	movlw	2
  3334  011176  6E23               	movwf	LEDBLINK@port5,c
  3335  011178  0E00               	movlw	0
  3336  01117A  6E26               	movwf	LEDBLINK@port6+1,c
  3337  01117C  0E02               	movlw	2
  3338  01117E  6E25               	movwf	LEDBLINK@port6,c
  3339  011180  0E00               	movlw	0
  3340  011182  6E28               	movwf	LEDBLINK@port7+1,c
  3341  011184  0E02               	movlw	2
  3342  011186  6E27               	movwf	LEDBLINK@port7,c
  3343  011188  0E00               	movlw	0
  3344  01118A  6E2A               	movwf	LEDBLINK@port8+1,c
  3345  01118C  0E00               	movlw	0
  3346  01118E  6E29               	movwf	LEDBLINK@port8,c
  3347  011190  EC4A  F089         	call	_LEDBLINK	;wreg free
  3348                           
  3349                           ;main.c: 196: delayms(led_delay);
  3350  011194  C03B  F020         	movff	main@led_delay,delayms@ms
  3351  011198  C03C  F021         	movff	main@led_delay+1,delayms@ms+1
  3352  01119C  EC1B  F08B         	call	_delayms	;wreg free
  3353                           
  3354                           ;main.c: 197: LEDBLINK(2,2,1,2,2,2,2,0);
  3355  0111A0  0E00               	movlw	0
  3356  0111A2  6E1C               	movwf	LEDBLINK@port1+1,c
  3357  0111A4  0E02               	movlw	2
  3358  0111A6  6E1B               	movwf	LEDBLINK@port1,c
  3359  0111A8  0E00               	movlw	0
  3360  0111AA  6E1E               	movwf	LEDBLINK@port2+1,c
  3361  0111AC  0E02               	movlw	2
  3362  0111AE  6E1D               	movwf	LEDBLINK@port2,c
  3363  0111B0  0E00               	movlw	0
  3364  0111B2  6E20               	movwf	LEDBLINK@port3+1,c
  3365  0111B4  0E01               	movlw	1
  3366  0111B6  6E1F               	movwf	LEDBLINK@port3,c
  3367  0111B8  0E00               	movlw	0
  3368  0111BA  6E22               	movwf	LEDBLINK@port4+1,c
  3369  0111BC  0E02               	movlw	2
  3370  0111BE  6E21               	movwf	LEDBLINK@port4,c
  3371  0111C0  0E00               	movlw	0
  3372  0111C2  6E24               	movwf	LEDBLINK@port5+1,c
  3373  0111C4  0E02               	movlw	2
  3374  0111C6  6E23               	movwf	LEDBLINK@port5,c
  3375  0111C8  0E00               	movlw	0
  3376  0111CA  6E26               	movwf	LEDBLINK@port6+1,c
  3377  0111CC  0E02               	movlw	2
  3378  0111CE  6E25               	movwf	LEDBLINK@port6,c
  3379  0111D0  0E00               	movlw	0
  3380  0111D2  6E28               	movwf	LEDBLINK@port7+1,c
  3381  0111D4  0E02               	movlw	2
  3382  0111D6  6E27               	movwf	LEDBLINK@port7,c
  3383  0111D8  0E00               	movlw	0
  3384  0111DA  6E2A               	movwf	LEDBLINK@port8+1,c
  3385  0111DC  0E00               	movlw	0
  3386  0111DE  6E29               	movwf	LEDBLINK@port8,c
  3387  0111E0  EC4A  F089         	call	_LEDBLINK	;wreg free
  3388                           
  3389                           ;main.c: 198: delayms(led_delay);
  3390  0111E4  C03B  F020         	movff	main@led_delay,delayms@ms
  3391  0111E8  C03C  F021         	movff	main@led_delay+1,delayms@ms+1
  3392  0111EC  EC1B  F08B         	call	_delayms	;wreg free
  3393                           
  3394                           ;main.c: 199: LEDBLINK(2,1,2,2,2,2,2,0);
  3395  0111F0  0E00               	movlw	0
  3396  0111F2  6E1C               	movwf	LEDBLINK@port1+1,c
  3397  0111F4  0E02               	movlw	2
  3398  0111F6  6E1B               	movwf	LEDBLINK@port1,c
  3399  0111F8  0E00               	movlw	0
  3400  0111FA  6E1E               	movwf	LEDBLINK@port2+1,c
  3401  0111FC  0E01               	movlw	1
  3402  0111FE  6E1D               	movwf	LEDBLINK@port2,c
  3403  011200  0E00               	movlw	0
  3404  011202  6E20               	movwf	LEDBLINK@port3+1,c
  3405  011204  0E02               	movlw	2
  3406  011206  6E1F               	movwf	LEDBLINK@port3,c
  3407  011208  0E00               	movlw	0
  3408  01120A  6E22               	movwf	LEDBLINK@port4+1,c
  3409  01120C  0E02               	movlw	2
  3410  01120E  6E21               	movwf	LEDBLINK@port4,c
  3411  011210  0E00               	movlw	0
  3412  011212  6E24               	movwf	LEDBLINK@port5+1,c
  3413  011214  0E02               	movlw	2
  3414  011216  6E23               	movwf	LEDBLINK@port5,c
  3415  011218  0E00               	movlw	0
  3416  01121A  6E26               	movwf	LEDBLINK@port6+1,c
  3417  01121C  0E02               	movlw	2
  3418  01121E  6E25               	movwf	LEDBLINK@port6,c
  3419  011220  0E00               	movlw	0
  3420  011222  6E28               	movwf	LEDBLINK@port7+1,c
  3421  011224  0E02               	movlw	2
  3422  011226  6E27               	movwf	LEDBLINK@port7,c
  3423  011228  0E00               	movlw	0
  3424  01122A  6E2A               	movwf	LEDBLINK@port8+1,c
  3425  01122C  0E00               	movlw	0
  3426  01122E  6E29               	movwf	LEDBLINK@port8,c
  3427  011230  EC4A  F089         	call	_LEDBLINK	;wreg free
  3428                           
  3429                           ;main.c: 200: delayms(led_delay);
  3430  011234  C03B  F020         	movff	main@led_delay,delayms@ms
  3431  011238  C03C  F021         	movff	main@led_delay+1,delayms@ms+1
  3432  01123C  EC1B  F08B         	call	_delayms	;wreg free
  3433                           
  3434                           ;main.c: 201: LEDBLINK(1,2,2,2,2,2,2,0);
  3435  011240  0E00               	movlw	0
  3436  011242  6E1C               	movwf	LEDBLINK@port1+1,c
  3437  011244  0E01               	movlw	1
  3438  011246  6E1B               	movwf	LEDBLINK@port1,c
  3439  011248  0E00               	movlw	0
  3440  01124A  6E1E               	movwf	LEDBLINK@port2+1,c
  3441  01124C  0E02               	movlw	2
  3442  01124E  6E1D               	movwf	LEDBLINK@port2,c
  3443  011250  0E00               	movlw	0
  3444  011252  6E20               	movwf	LEDBLINK@port3+1,c
  3445  011254  0E02               	movlw	2
  3446  011256  6E1F               	movwf	LEDBLINK@port3,c
  3447  011258  0E00               	movlw	0
  3448  01125A  6E22               	movwf	LEDBLINK@port4+1,c
  3449  01125C  0E02               	movlw	2
  3450  01125E  6E21               	movwf	LEDBLINK@port4,c
  3451  011260  0E00               	movlw	0
  3452  011262  6E24               	movwf	LEDBLINK@port5+1,c
  3453  011264  0E02               	movlw	2
  3454  011266  6E23               	movwf	LEDBLINK@port5,c
  3455  011268  0E00               	movlw	0
  3456  01126A  6E26               	movwf	LEDBLINK@port6+1,c
  3457  01126C  0E02               	movlw	2
  3458  01126E  6E25               	movwf	LEDBLINK@port6,c
  3459  011270  0E00               	movlw	0
  3460  011272  6E28               	movwf	LEDBLINK@port7+1,c
  3461  011274  0E02               	movlw	2
  3462  011276  6E27               	movwf	LEDBLINK@port7,c
  3463  011278  0E00               	movlw	0
  3464  01127A  6E2A               	movwf	LEDBLINK@port8+1,c
  3465  01127C  0E00               	movlw	0
  3466  01127E  6E29               	movwf	LEDBLINK@port8,c
  3467  011280  EC4A  F089         	call	_LEDBLINK	;wreg free
  3468                           
  3469                           ;main.c: 202: delayms(led_delay);
  3470  011284  C03B  F020         	movff	main@led_delay,delayms@ms
  3471  011288  C03C  F021         	movff	main@led_delay+1,delayms@ms+1
  3472  01128C  EC1B  F08B         	call	_delayms	;wreg free
  3473  011290  EF32  F080         	goto	l1777
  3474  011294                     __end_of_main:
  3475                           	opt stack 0
  3476                           tblptru	equ	0xFF8
  3477                           tblptrh	equ	0xFF7
  3478                           tblptrl	equ	0xFF6
  3479                           tablat	equ	0xFF5
  3480                           postinc0	equ	0xFEE
  3481                           wreg	equ	0xFE8
  3482                           postdec1	equ	0xFE5
  3483                           fsr1h	equ	0xFE2
  3484                           fsr1l	equ	0xFE1
  3485                           
  3486 ;; *************** function _timer1Init *****************
  3487 ;; Defined at:
  3488 ;;		line 43 in file "timers.c"
  3489 ;; Parameters:    Size  Location     Type
  3490 ;;		None
  3491 ;; Auto vars:     Size  Location     Type
  3492 ;;		None
  3493 ;; Return value:  Size  Location     Type
  3494 ;;		None               void
  3495 ;; Registers used:
  3496 ;;		wreg, status,2
  3497 ;; Tracked objects:
  3498 ;;		On entry : 0/0
  3499 ;;		On exit  : 0/0
  3500 ;;		Unchanged: 0/0
  3501 ;; Data sizes:     COMRAM   BANK0   BANK1   BANK2   BANK3   BANK4   BANK5   BANK6   BANK7   BANK8   BANK9  BANK10  BANK1
      +1  BANK12  BANK13  BANK14
  3502 ;;      Params:         0       0       0       0       0       0       0       0       0       0       0       0       
      +0       0       0       0
  3503 ;;      Locals:         0       0       0       0       0       0       0       0       0       0       0       0       
      +0       0       0       0
  3504 ;;      Temps:          0       0       0       0       0       0       0       0       0       0       0       0       
      +0       0       0       0
  3505 ;;      Totals:         0       0       0       0       0       0       0       0       0       0       0       0       
      +0       0       0       0
  3506 ;;Total ram usage:        0 bytes
  3507 ;; Hardware stack levels used:    1
  3508 ;; Hardware stack levels required when called:    3
  3509 ;; This function calls:
  3510 ;;		Nothing
  3511 ;; This function is called by:
  3512 ;;		_main
  3513 ;; This function uses a non-reentrant model
  3514 ;;
  3515                           
  3516                           	psect	text1
  3517  011656                     __ptext1:
  3518                           	opt stack 0
  3519  011656                     _timer1Init:
  3520                           	opt stack 27
  3521                           
  3522                           ;timers.c: 45: PIR1bits.TMR1IF = 0;
  3523                           
  3524                           ;incstack = 0
  3525  011656  909E               	bcf	3998,0,c	;volatile
  3526                           
  3527                           ;timers.c: 46: TMR1H = 0;
  3528  011658  0E00               	movlw	0
  3529  01165A  6ECF               	movwf	4047,c	;volatile
  3530                           
  3531                           ;timers.c: 47: TMR1L = 0;
  3532  01165C  0E00               	movlw	0
  3533  01165E  6ECE               	movwf	4046,c	;volatile
  3534                           
  3535                           ;timers.c: 52: T1CON = 0x8E;
  3536  011660  0E8E               	movlw	142
  3537  011662  6ECD               	movwf	4045,c	;volatile
  3538                           
  3539                           ;timers.c: 53: PIE1bits.TMR1IE = 1;
  3540  011664  809D               	bsf	3997,0,c	;volatile
  3541                           
  3542                           ;timers.c: 54: INTCONbits.PEIE = 1;
  3543  011666  8CF2               	bsf	intcon,6,c	;volatile
  3544                           
  3545                           ;timers.c: 55: INTCONbits.GIE = 1;
  3546  011668  8EF2               	bsf	intcon,7,c	;volatile
  3547                           
  3548                           ;timers.c: 56: T1CONbits.TMR1ON = 1;
  3549  01166A  80CD               	bsf	4045,0,c	;volatile
  3550  01166C  0012               	return	
  3551  01166E                     __end_of_timer1Init:
  3552                           	opt stack 0
  3553                           tblptru	equ	0xFF8
  3554                           tblptrh	equ	0xFF7
  3555                           tblptrl	equ	0xFF6
  3556                           tablat	equ	0xFF5
  3557                           intcon	equ	0xFF2
  3558                           postinc0	equ	0xFEE
  3559                           wreg	equ	0xFE8
  3560                           postdec1	equ	0xFE5
  3561                           fsr1h	equ	0xFE2
  3562                           fsr1l	equ	0xFE1
  3563                           
  3564 ;; *************** function _timer0Init *****************
  3565 ;; Defined at:
  3566 ;;		line 29 in file "timers.c"
  3567 ;; Parameters:    Size  Location     Type
  3568 ;;		None
  3569 ;; Auto vars:     Size  Location     Type
  3570 ;;		None
  3571 ;; Return value:  Size  Location     Type
  3572 ;;		None               void
  3573 ;; Registers used:
  3574 ;;		wreg, status,2
  3575 ;; Tracked objects:
  3576 ;;		On entry : 0/0
  3577 ;;		On exit  : 0/0
  3578 ;;		Unchanged: 0/0
  3579 ;; Data sizes:     COMRAM   BANK0   BANK1   BANK2   BANK3   BANK4   BANK5   BANK6   BANK7   BANK8   BANK9  BANK10  BANK1
      +1  BANK12  BANK13  BANK14
  3580 ;;      Params:         0       0       0       0       0       0       0       0       0       0       0       0       
      +0       0       0       0
  3581 ;;      Locals:         0       0       0       0       0       0       0       0       0       0       0       0       
      +0       0       0       0
  3582 ;;      Temps:          0       0       0       0       0       0       0       0       0       0       0       0       
      +0       0       0       0
  3583 ;;      Totals:         0       0       0       0       0       0       0       0       0       0       0       0       
      +0       0       0       0
  3584 ;;Total ram usage:        0 bytes
  3585 ;; Hardware stack levels used:    1
  3586 ;; Hardware stack levels required when called:    3
  3587 ;; This function calls:
  3588 ;;		Nothing
  3589 ;; This function is called by:
  3590 ;;		_main
  3591 ;; This function uses a non-reentrant model
  3592 ;;
  3593                           
  3594                           	psect	text2
  3595  011678                     __ptext2:
  3596                           	opt stack 0
  3597  011678                     _timer0Init:
  3598                           	opt stack 27
  3599                           
  3600                           ;timers.c: 31: T0CON = 0x00;
  3601                           
  3602                           ;incstack = 0
  3603  011678  0E00               	movlw	0
  3604  01167A  6ED5               	movwf	4053,c	;volatile
  3605  01167C  0012               	return	
  3606  01167E                     __end_of_timer0Init:
  3607                           	opt stack 0
  3608                           tblptru	equ	0xFF8
  3609                           tblptrh	equ	0xFF7
  3610                           tblptrl	equ	0xFF6
  3611                           tablat	equ	0xFF5
  3612                           intcon	equ	0xFF2
  3613                           postinc0	equ	0xFEE
  3614                           wreg	equ	0xFE8
  3615                           postdec1	equ	0xFE5
  3616                           fsr1h	equ	0xFE2
  3617                           fsr1l	equ	0xFE1
  3618                           
  3619 ;; *************** function _delayms *****************
  3620 ;; Defined at:
  3621 ;;		line 61 in file "timers.c"
  3622 ;; Parameters:    Size  Location     Type
  3623 ;;  ms              2   31[COMRAM] unsigned short 
  3624 ;; Auto vars:     Size  Location     Type
  3625 ;;		None
  3626 ;; Return value:  Size  Location     Type
  3627 ;;		None               void
  3628 ;; Registers used:
  3629 ;;		wreg, status,2, status,0, cstack
  3630 ;; Tracked objects:
  3631 ;;		On entry : 0/0
  3632 ;;		On exit  : 0/0
  3633 ;;		Unchanged: 0/0
  3634 ;; Data sizes:     COMRAM   BANK0   BANK1   BANK2   BANK3   BANK4   BANK5   BANK6   BANK7   BANK8   BANK9  BANK10  BANK1
      +1  BANK12  BANK13  BANK14
  3635 ;;      Params:         2       0       0       0       0       0       0       0       0       0       0       0       
      +0       0       0       0
  3636 ;;      Locals:         0       0       0       0       0       0       0       0       0       0       0       0       
      +0       0       0       0
  3637 ;;      Temps:          0       0       0       0       0       0       0       0       0       0       0       0       
      +0       0       0       0
  3638 ;;      Totals:         2       0       0       0       0       0       0       0       0       0       0       0       
      +0       0       0       0
  3639 ;;Total ram usage:        2 bytes
  3640 ;; Hardware stack levels used:    1
  3641 ;; Hardware stack levels required when called:    4
  3642 ;; This function calls:
  3643 ;;		_usleep
  3644 ;; This function is called by:
  3645 ;;		_main
  3646 ;;		_Lcd_Init
  3647 ;; This function uses a non-reentrant model
  3648 ;;
  3649                           
  3650                           	psect	text3
  3651  011636                     __ptext3:
  3652                           	opt stack 0
  3653  011636                     _delayms:
  3654                           	opt stack 26
  3655                           
  3656                           ;timers.c: 63: while (ms--)
  3657                           
  3658                           ;incstack = 0
  3659  011636  D006               	goto	l1321
  3660  011638                     l1319:
  3661                           
  3662                           ;timers.c: 64: usleep(64786);
  3663  011638  0EFD               	movlw	253
  3664  01163A  6E1C               	movwf	usleep@ticks+1,c
  3665  01163C  0E12               	movlw	18
  3666  01163E  6E1B               	movwf	usleep@ticks,c
  3667  011640  EC0A  F08B         	call	_usleep	;wreg free
  3668  011644                     l1321:
  3669  011644  0620               	decf	delayms@ms,f,c
  3670  011646  A0D8               	btfss	status,0,c
  3671  011648  0621               	decf	delayms@ms+1,f,c
  3672  01164A  2820               	incf	delayms@ms& (0+255),w,c
  3673  01164C  B4D8               	btfsc	status,2,c
  3674  01164E  2821               	incf	(delayms@ms+1)& (0+255),w,c
  3675  011650  B4D8               	btfsc	status,2,c
  3676  011652  0012               	return	
  3677  011654  D7F1               	goto	l1319
  3678  011656                     __end_of_delayms:
  3679                           	opt stack 0
  3680                           tblptru	equ	0xFF8
  3681                           tblptrh	equ	0xFF7
  3682                           tblptrl	equ	0xFF6
  3683                           tablat	equ	0xFF5
  3684                           intcon	equ	0xFF2
  3685                           postinc0	equ	0xFEE
  3686                           wreg	equ	0xFE8
  3687                           postdec1	equ	0xFE5
  3688                           fsr1h	equ	0xFE2
  3689                           fsr1l	equ	0xFE1
  3690                           status	equ	0xFD8
  3691                           
  3692 ;; *************** function _usleep *****************
  3693 ;; Defined at:
  3694 ;;		line 76 in file "timers.c"
  3695 ;; Parameters:    Size  Location     Type
  3696 ;;  ticks           2   26[COMRAM] unsigned short 
  3697 ;; Auto vars:     Size  Location     Type
  3698 ;;		None
  3699 ;; Return value:  Size  Location     Type
  3700 ;;		None               void
  3701 ;; Registers used:
  3702 ;;		wreg, status,2
  3703 ;; Tracked objects:
  3704 ;;		On entry : 0/0
  3705 ;;		On exit  : 0/0
  3706 ;;		Unchanged: 0/0
  3707 ;; Data sizes:     COMRAM   BANK0   BANK1   BANK2   BANK3   BANK4   BANK5   BANK6   BANK7   BANK8   BANK9  BANK10  BANK1
      +1  BANK12  BANK13  BANK14
  3708 ;;      Params:         2       0       0       0       0       0       0       0       0       0       0       0       
      +0       0       0       0
  3709 ;;      Locals:         0       0       0       0       0       0       0       0       0       0       0       0       
      +0       0       0       0
  3710 ;;      Temps:          3       0       0       0       0       0       0       0       0       0       0       0       
      +0       0       0       0
  3711 ;;      Totals:         5       0       0       0       0       0       0       0       0       0       0       0       
      +0       0       0       0
  3712 ;;Total ram usage:        5 bytes
  3713 ;; Hardware stack levels used:    1
  3714 ;; Hardware stack levels required when called:    3
  3715 ;; This function calls:
  3716 ;;		Nothing
  3717 ;; This function is called by:
  3718 ;;		_delayms
  3719 ;;		_writeNibble
  3720 ;;		_setPos
  3721 ;;		_LCDWrite
  3722 ;;		_LCDInit
  3723 ;; This function uses a non-reentrant model
  3724 ;;
  3725                           
  3726                           	psect	text4
  3727  011614                     __ptext4:
  3728                           	opt stack 0
  3729  011614                     _usleep:
  3730                           	opt stack 26
  3731                           
  3732                           ;timers.c: 78: TMR0H = ticks >> 8;
  3733                           
  3734                           ;incstack = 0
  3735  011614  C01C  F01D         	movff	usleep@ticks+1,??_usleep
  3736  011618  C01D  F01E         	movff	??_usleep,??_usleep+1
  3737  01161C  6A1F               	clrf	(??_usleep+2)& (0+255),c
  3738  01161E  501E               	movf	??_usleep+1,w,c
  3739  011620  6ED7               	movwf	4055,c	;volatile
  3740                           
  3741                           ;timers.c: 79: TMR0L = ticks & 0xFF;
  3742  011622  C01B  FFD6         	movff	usleep@ticks,4054	;volatile
  3743                           
  3744                           ;timers.c: 81: INTCONbits.TMR0IF = 0;
  3745  011626  94F2               	bcf	intcon,2,c	;volatile
  3746                           
  3747                           ;timers.c: 82: T0CON = 0x83;
  3748  011628  0E83               	movlw	131
  3749  01162A  6ED5               	movwf	4053,c	;volatile
  3750  01162C                     l63:
  3751  01162C  A4F2               	btfss	intcon,2,c	;volatile
  3752  01162E  D7FE               	goto	l63
  3753                           
  3754                           ;timers.c: 87: T0CON = 0x00;
  3755  011630  0E00               	movlw	0
  3756  011632  6ED5               	movwf	4053,c	;volatile
  3757  011634  0012               	return	
  3758  011636                     __end_of_usleep:
  3759                           	opt stack 0
  3760                           tblptru	equ	0xFF8
  3761                           tblptrh	equ	0xFF7
  3762                           tblptrl	equ	0xFF6
  3763                           tablat	equ	0xFF5
  3764                           intcon	equ	0xFF2
  3765                           postinc0	equ	0xFEE
  3766                           wreg	equ	0xFE8
  3767                           postdec1	equ	0xFE5
  3768                           fsr1h	equ	0xFE2
  3769                           fsr1l	equ	0xFE1
  3770                           status	equ	0xFD8
  3771                           
  3772 ;; *************** function _LEDBLINK *****************
  3773 ;; Defined at:
  3774 ;;		line 40 in file "hardware.c"
  3775 ;; Parameters:    Size  Location     Type
  3776 ;;  port1           2   26[COMRAM] unsigned int 
  3777 ;;  port2           2   28[COMRAM] unsigned int 
  3778 ;;  port3           2   30[COMRAM] unsigned int 
  3779 ;;  port4           2   32[COMRAM] unsigned int 
  3780 ;;  port5           2   34[COMRAM] unsigned int 
  3781 ;;  port6           2   36[COMRAM] unsigned int 
  3782 ;;  port7           2   38[COMRAM] unsigned int 
  3783 ;;  port8           2   40[COMRAM] unsigned int 
  3784 ;; Auto vars:     Size  Location     Type
  3785 ;;		None
  3786 ;; Return value:  Size  Location     Type
  3787 ;;		None               void
  3788 ;; Registers used:
  3789 ;;		wreg, status,2, status,0
  3790 ;; Tracked objects:
  3791 ;;		On entry : 0/0
  3792 ;;		On exit  : 0/0
  3793 ;;		Unchanged: 0/0
  3794 ;; Data sizes:     COMRAM   BANK0   BANK1   BANK2   BANK3   BANK4   BANK5   BANK6   BANK7   BANK8   BANK9  BANK10  BANK1
      +1  BANK12  BANK13  BANK14
  3795 ;;      Params:        16       0       0       0       0       0       0       0       0       0       0       0       
      +0       0       0       0
  3796 ;;      Locals:         0       0       0       0       0       0       0       0       0       0       0       0       
      +0       0       0       0
  3797 ;;      Temps:          0       0       0       0       0       0       0       0       0       0       0       0       
      +0       0       0       0
  3798 ;;      Totals:        16       0       0       0       0       0       0       0       0       0       0       0       
      +0       0       0       0
  3799 ;;Total ram usage:       16 bytes
  3800 ;; Hardware stack levels used:    1
  3801 ;; Hardware stack levels required when called:    3
  3802 ;; This function calls:
  3803 ;;		Nothing
  3804 ;; This function is called by:
  3805 ;;		_main
  3806 ;; This function uses a non-reentrant model
  3807 ;;
  3808                           
  3809                           	psect	text5
  3810  011294                     __ptext5:
  3811                           	opt stack 0
  3812  011294                     _LEDBLINK:
  3813                           	opt stack 27
  3814                           
  3815                           ;hardware.c: 47: TRISCbits.TRISC4 = 0;
  3816                           
  3817                           ;incstack = 0
  3818  011294  9894               	bcf	3988,4,c	;volatile
  3819                           
  3820                           ;hardware.c: 48: TRISCbits.TRISC5 = 0;
  3821  011296  9A94               	bcf	3988,5,c	;volatile
  3822                           
  3823                           ;hardware.c: 49: TRISCbits.TRISC6 = 0;
  3824  011298  9C94               	bcf	3988,6,c	;volatile
  3825                           
  3826                           ;hardware.c: 50: TRISCbits.TRISC7 = 0;
  3827  01129A  9E94               	bcf	3988,7,c	;volatile
  3828                           
  3829                           ;hardware.c: 52: TRISAbits.TRISA7 = 0;
  3830  01129C  9E92               	bcf	3986,7,c	;volatile
  3831                           
  3832                           ;hardware.c: 53: TRISAbits.TRISA6 = 0;
  3833  01129E  9C92               	bcf	3986,6,c	;volatile
  3834                           
  3835                           ;hardware.c: 54: TRISCbits.TRISC2 = 0;
  3836  0112A0  9494               	bcf	3988,2,c	;volatile
  3837                           
  3838                           ;hardware.c: 55: TRISCbits.TRISC3 = 0;
  3839  0112A2  9694               	bcf	3988,3,c	;volatile
  3840                           
  3841                           ;hardware.c: 57: LATBbits.LATB5 ^= 1;
  3842  0112A4  7A8A               	btg	3978,5,c	;volatile
  3843                           
  3844                           ;hardware.c: 59: if(port1 == 0) {
  3845  0112A6  501C               	movf	LEDBLINK@port1+1,w,c
  3846  0112A8  101B               	iorwf	LEDBLINK@port1,w,c
  3847  0112AA  A4D8               	btfss	status,2,c
  3848  0112AC  D003               	goto	l1329
  3849                           
  3850                           ;hardware.c: 60: TRISCbits.TRISC4 = 0;
  3851  0112AE  9894               	bcf	3988,4,c	;volatile
  3852                           
  3853                           ;hardware.c: 61: LATCbits.LATC4 = 0;
  3854  0112B0  988B               	bcf	3979,4,c	;volatile
  3855                           
  3856                           ;hardware.c: 62: } else if (port1 == 1) {
  3857  0112B2  D00C               	goto	l1337
  3858  0112B4                     l1329:
  3859  0112B4  041B               	decf	LEDBLINK@port1,w,c
  3860  0112B6  101C               	iorwf	LEDBLINK@port1+1,w,c
  3861  0112B8  A4D8               	btfss	status,2,c
  3862  0112BA  D003               	goto	l1333
  3863                           
  3864                           ;hardware.c: 63: TRISCbits.TRISC4 = 0;
  3865  0112BC  9894               	bcf	3988,4,c	;volatile
  3866                           
  3867                           ;hardware.c: 64: LATCbits.LATC4 = 1;
  3868  0112BE  888B               	bsf	3979,4,c	;volatile
  3869                           
  3870                           ;hardware.c: 65: } else if (port1 == 2) {
  3871  0112C0  D005               	goto	l1337
  3872  0112C2                     l1333:
  3873  0112C2  501B               	movf	LEDBLINK@port1,w,c
  3874  0112C4  0A02               	xorlw	2
  3875  0112C6  101C               	iorwf	LEDBLINK@port1+1,w,c
  3876  0112C8  B4D8               	btfsc	status,2,c
  3877                           
  3878                           ;hardware.c: 66: TRISCbits.TRISC4 = 1;
  3879  0112CA  8894               	bsf	3988,4,c	;volatile
  3880  0112CC                     l1337:
  3881                           
  3882                           ;hardware.c: 67: }
  3883                           ;hardware.c: 69: if(port2 == 0) {
  3884  0112CC  501E               	movf	LEDBLINK@port2+1,w,c
  3885  0112CE  101D               	iorwf	LEDBLINK@port2,w,c
  3886  0112D0  A4D8               	btfss	status,2,c
  3887  0112D2  D003               	goto	l1341
  3888                           
  3889                           ;hardware.c: 70: TRISCbits.TRISC5 = 0;
  3890  0112D4  9A94               	bcf	3988,5,c	;volatile
  3891                           
  3892                           ;hardware.c: 71: LATCbits.LATC5 = 0;
  3893  0112D6  9A8B               	bcf	3979,5,c	;volatile
  3894                           
  3895                           ;hardware.c: 72: } else if (port2 == 1) {
  3896  0112D8  D00C               	goto	l1349
  3897  0112DA                     l1341:
  3898  0112DA  041D               	decf	LEDBLINK@port2,w,c
  3899  0112DC  101E               	iorwf	LEDBLINK@port2+1,w,c
  3900  0112DE  A4D8               	btfss	status,2,c
  3901  0112E0  D003               	goto	l1345
  3902                           
  3903                           ;hardware.c: 73: TRISCbits.TRISC5 = 0;
  3904  0112E2  9A94               	bcf	3988,5,c	;volatile
  3905                           
  3906                           ;hardware.c: 74: LATCbits.LATC5 = 1;
  3907  0112E4  8A8B               	bsf	3979,5,c	;volatile
  3908                           
  3909                           ;hardware.c: 75: } else if (port2 == 2) {
  3910  0112E6  D005               	goto	l1349
  3911  0112E8                     l1345:
  3912  0112E8  501D               	movf	LEDBLINK@port2,w,c
  3913  0112EA  0A02               	xorlw	2
  3914  0112EC  101E               	iorwf	LEDBLINK@port2+1,w,c
  3915  0112EE  B4D8               	btfsc	status,2,c
  3916                           
  3917                           ;hardware.c: 76: TRISCbits.TRISC5 = 1;
  3918  0112F0  8A94               	bsf	3988,5,c	;volatile
  3919  0112F2                     l1349:
  3920                           
  3921                           ;hardware.c: 77: }
  3922                           ;hardware.c: 79: if(port3 == 0) {
  3923  0112F2  5020               	movf	LEDBLINK@port3+1,w,c
  3924  0112F4  101F               	iorwf	LEDBLINK@port3,w,c
  3925  0112F6  A4D8               	btfss	status,2,c
  3926  0112F8  D003               	goto	l1353
  3927                           
  3928                           ;hardware.c: 80: TRISCbits.TRISC6 = 0;
  3929  0112FA  9C94               	bcf	3988,6,c	;volatile
  3930                           
  3931                           ;hardware.c: 81: LATCbits.LATC6 = 0;
  3932  0112FC  9C8B               	bcf	3979,6,c	;volatile
  3933                           
  3934                           ;hardware.c: 82: } else if (port3 == 1) {
  3935  0112FE  D00C               	goto	l1361
  3936  011300                     l1353:
  3937  011300  041F               	decf	LEDBLINK@port3,w,c
  3938  011302  1020               	iorwf	LEDBLINK@port3+1,w,c
  3939  011304  A4D8               	btfss	status,2,c
  3940  011306  D003               	goto	l1357
  3941                           
  3942                           ;hardware.c: 83: TRISCbits.TRISC6 = 0;
  3943  011308  9C94               	bcf	3988,6,c	;volatile
  3944                           
  3945                           ;hardware.c: 84: LATCbits.LATC6 = 1;
  3946  01130A  8C8B               	bsf	3979,6,c	;volatile
  3947                           
  3948                           ;hardware.c: 85: } else if (port3 == 2) {
  3949  01130C  D005               	goto	l1361
  3950  01130E                     l1357:
  3951  01130E  501F               	movf	LEDBLINK@port3,w,c
  3952  011310  0A02               	xorlw	2
  3953  011312  1020               	iorwf	LEDBLINK@port3+1,w,c
  3954  011314  B4D8               	btfsc	status,2,c
  3955                           
  3956                           ;hardware.c: 86: TRISCbits.TRISC6 = 1;
  3957  011316  8C94               	bsf	3988,6,c	;volatile
  3958  011318                     l1361:
  3959                           
  3960                           ;hardware.c: 87: }
  3961                           ;hardware.c: 89: if(port4 == 0) {
  3962  011318  5022               	movf	LEDBLINK@port4+1,w,c
  3963  01131A  1021               	iorwf	LEDBLINK@port4,w,c
  3964  01131C  A4D8               	btfss	status,2,c
  3965  01131E  D003               	goto	l1365
  3966                           
  3967                           ;hardware.c: 90: TRISCbits.TRISC7 = 0;
  3968  011320  9E94               	bcf	3988,7,c	;volatile
  3969                           
  3970                           ;hardware.c: 91: LATCbits.LATC7 = 0;
  3971  011322  9E8B               	bcf	3979,7,c	;volatile
  3972                           
  3973                           ;hardware.c: 92: } else if (port4 == 1) {
  3974  011324  D00C               	goto	l1373
  3975  011326                     l1365:
  3976  011326  0421               	decf	LEDBLINK@port4,w,c
  3977  011328  1022               	iorwf	LEDBLINK@port4+1,w,c
  3978  01132A  A4D8               	btfss	status,2,c
  3979  01132C  D003               	goto	l1369
  3980                           
  3981                           ;hardware.c: 93: TRISCbits.TRISC7 = 0;
  3982  01132E  9E94               	bcf	3988,7,c	;volatile
  3983                           
  3984                           ;hardware.c: 94: LATCbits.LATC7 = 1;
  3985  011330  8E8B               	bsf	3979,7,c	;volatile
  3986                           
  3987                           ;hardware.c: 95: } else if (port4 == 2) {
  3988  011332  D005               	goto	l1373
  3989  011334                     l1369:
  3990  011334  5021               	movf	LEDBLINK@port4,w,c
  3991  011336  0A02               	xorlw	2
  3992  011338  1022               	iorwf	LEDBLINK@port4+1,w,c
  3993  01133A  B4D8               	btfsc	status,2,c
  3994                           
  3995                           ;hardware.c: 96: TRISCbits.TRISC7 = 1;
  3996  01133C  8E94               	bsf	3988,7,c	;volatile
  3997  01133E                     l1373:
  3998                           
  3999                           ;hardware.c: 97: }
  4000                           ;hardware.c: 99: if(port5 == 0) {
  4001  01133E  5024               	movf	LEDBLINK@port5+1,w,c
  4002  011340  1023               	iorwf	LEDBLINK@port5,w,c
  4003  011342  A4D8               	btfss	status,2,c
  4004  011344  D003               	goto	l1377
  4005                           
  4006                           ;hardware.c: 100: TRISAbits.TRISA7 = 0;
  4007  011346  9E92               	bcf	3986,7,c	;volatile
  4008                           
  4009                           ;hardware.c: 101: LATAbits.LATA7 = 0;
  4010  011348  9E89               	bcf	3977,7,c	;volatile
  4011                           
  4012                           ;hardware.c: 102: } else if (port5 == 1) {
  4013  01134A  D00C               	goto	l1385
  4014  01134C                     l1377:
  4015  01134C  0423               	decf	LEDBLINK@port5,w,c
  4016  01134E  1024               	iorwf	LEDBLINK@port5+1,w,c
  4017  011350  A4D8               	btfss	status,2,c
  4018  011352  D003               	goto	l1381
  4019                           
  4020                           ;hardware.c: 103: TRISAbits.TRISA7 = 0;
  4021  011354  9E92               	bcf	3986,7,c	;volatile
  4022                           
  4023                           ;hardware.c: 104: LATAbits.LATA7 = 1;
  4024  011356  8E89               	bsf	3977,7,c	;volatile
  4025                           
  4026                           ;hardware.c: 105: } else if (port5 == 2) {
  4027  011358  D005               	goto	l1385
  4028  01135A                     l1381:
  4029  01135A  5023               	movf	LEDBLINK@port5,w,c
  4030  01135C  0A02               	xorlw	2
  4031  01135E  1024               	iorwf	LEDBLINK@port5+1,w,c
  4032  011360  B4D8               	btfsc	status,2,c
  4033                           
  4034                           ;hardware.c: 106: TRISAbits.TRISA7 = 1;
  4035  011362  8E92               	bsf	3986,7,c	;volatile
  4036  011364                     l1385:
  4037                           
  4038                           ;hardware.c: 107: }
  4039                           ;hardware.c: 109: if(port6 == 0) {
  4040  011364  5026               	movf	LEDBLINK@port6+1,w,c
  4041  011366  1025               	iorwf	LEDBLINK@port6,w,c
  4042  011368  A4D8               	btfss	status,2,c
  4043  01136A  D003               	goto	l1389
  4044                           
  4045                           ;hardware.c: 110: TRISAbits.TRISA6 = 0;
  4046  01136C  9C92               	bcf	3986,6,c	;volatile
  4047                           
  4048                           ;hardware.c: 111: LATAbits.LATA6 = 0;
  4049  01136E  9C89               	bcf	3977,6,c	;volatile
  4050                           
  4051                           ;hardware.c: 112: } else if (port6 == 1) {
  4052  011370  D00C               	goto	l1397
  4053  011372                     l1389:
  4054  011372  0425               	decf	LEDBLINK@port6,w,c
  4055  011374  1026               	iorwf	LEDBLINK@port6+1,w,c
  4056  011376  A4D8               	btfss	status,2,c
  4057  011378  D003               	goto	l1393
  4058                           
  4059                           ;hardware.c: 113: TRISAbits.TRISA6 = 0;
  4060  01137A  9C92               	bcf	3986,6,c	;volatile
  4061                           
  4062                           ;hardware.c: 114: LATAbits.LATA6 = 1;
  4063  01137C  8C89               	bsf	3977,6,c	;volatile
  4064                           
  4065                           ;hardware.c: 115: } else if (port6 == 2) {
  4066  01137E  D005               	goto	l1397
  4067  011380                     l1393:
  4068  011380  5025               	movf	LEDBLINK@port6,w,c
  4069  011382  0A02               	xorlw	2
  4070  011384  1026               	iorwf	LEDBLINK@port6+1,w,c
  4071  011386  B4D8               	btfsc	status,2,c
  4072                           
  4073                           ;hardware.c: 116: TRISAbits.TRISA6 = 1;
  4074  011388  8C92               	bsf	3986,6,c	;volatile
  4075  01138A                     l1397:
  4076                           
  4077                           ;hardware.c: 117: }
  4078                           ;hardware.c: 119: if(port7 == 0) {
  4079  01138A  5028               	movf	LEDBLINK@port7+1,w,c
  4080  01138C  1027               	iorwf	LEDBLINK@port7,w,c
  4081  01138E  A4D8               	btfss	status,2,c
  4082  011390  D003               	goto	l1401
  4083                           
  4084                           ;hardware.c: 120: TRISCbits.TRISC2 = 0;
  4085  011392  9494               	bcf	3988,2,c	;volatile
  4086                           
  4087                           ;hardware.c: 121: LATCbits.LATC2 = 0;
  4088  011394  948B               	bcf	3979,2,c	;volatile
  4089                           
  4090                           ;hardware.c: 122: } else if (port7 == 1) {
  4091  011396  D00C               	goto	l1409
  4092  011398                     l1401:
  4093  011398  0427               	decf	LEDBLINK@port7,w,c
  4094  01139A  1028               	iorwf	LEDBLINK@port7+1,w,c
  4095  01139C  A4D8               	btfss	status,2,c
  4096  01139E  D003               	goto	l1405
  4097                           
  4098                           ;hardware.c: 123: TRISCbits.TRISC2 = 0;
  4099  0113A0  9494               	bcf	3988,2,c	;volatile
  4100                           
  4101                           ;hardware.c: 124: LATCbits.LATC2 = 1;
  4102  0113A2  848B               	bsf	3979,2,c	;volatile
  4103                           
  4104                           ;hardware.c: 125: } else if (port7 == 2) {
  4105  0113A4  D005               	goto	l1409
  4106  0113A6                     l1405:
  4107  0113A6  5027               	movf	LEDBLINK@port7,w,c
  4108  0113A8  0A02               	xorlw	2
  4109  0113AA  1028               	iorwf	LEDBLINK@port7+1,w,c
  4110  0113AC  B4D8               	btfsc	status,2,c
  4111                           
  4112                           ;hardware.c: 126: TRISCbits.TRISC2 = 1;
  4113  0113AE  8494               	bsf	3988,2,c	;volatile
  4114  0113B0                     l1409:
  4115                           
  4116                           ;hardware.c: 127: }
  4117                           ;hardware.c: 129: if(port8 == 0) {
  4118  0113B0  502A               	movf	LEDBLINK@port8+1,w,c
  4119  0113B2  1029               	iorwf	LEDBLINK@port8,w,c
  4120  0113B4  A4D8               	btfss	status,2,c
  4121  0113B6  D003               	goto	l1413
  4122                           
  4123                           ;hardware.c: 130: TRISCbits.TRISC3 = 0;
  4124  0113B8  9694               	bcf	3988,3,c	;volatile
  4125                           
  4126                           ;hardware.c: 131: LATCbits.LATC3 = 0;
  4127  0113BA  968B               	bcf	3979,3,c	;volatile
  4128                           
  4129                           ;hardware.c: 132: } else if (port8 == 1) {
  4130  0113BC  0012               	return	
  4131  0113BE                     l1413:
  4132  0113BE  0429               	decf	LEDBLINK@port8,w,c
  4133  0113C0  102A               	iorwf	LEDBLINK@port8+1,w,c
  4134  0113C2  A4D8               	btfss	status,2,c
  4135  0113C4  D003               	goto	l1417
  4136                           
  4137                           ;hardware.c: 133: TRISCbits.TRISC3 = 0;
  4138  0113C6  9694               	bcf	3988,3,c	;volatile
  4139                           
  4140                           ;hardware.c: 134: LATCbits.LATC3 = 1;
  4141  0113C8  868B               	bsf	3979,3,c	;volatile
  4142                           
  4143                           ;hardware.c: 135: } else if (port8 == 2) {
  4144  0113CA  0012               	return	
  4145  0113CC                     l1417:
  4146  0113CC  5029               	movf	LEDBLINK@port8,w,c
  4147  0113CE  0A02               	xorlw	2
  4148  0113D0  102A               	iorwf	LEDBLINK@port8+1,w,c
  4149  0113D2  A4D8               	btfss	status,2,c
  4150  0113D4  0012               	return	
  4151                           
  4152                           ;hardware.c: 136: TRISCbits.TRISC3 = 1;
  4153  0113D6  8694               	bsf	3988,3,c	;volatile
  4154  0113D8  0012               	return	
  4155  0113DA                     __end_of_LEDBLINK:
  4156                           	opt stack 0
  4157                           tblptru	equ	0xFF8
  4158                           tblptrh	equ	0xFF7
  4159                           tblptrl	equ	0xFF6
  4160                           tablat	equ	0xFF5
  4161                           intcon	equ	0xFF2
  4162                           postinc0	equ	0xFEE
  4163                           wreg	equ	0xFE8
  4164                           postdec1	equ	0xFE5
  4165                           fsr1h	equ	0xFE2
  4166                           fsr1l	equ	0xFE1
  4167                           status	equ	0xFD8
  4168                           
  4169 ;; *************** function _InterruptHandler *****************
  4170 ;; Defined at:
  4171 ;;		line 36 in file "interrupts.c"
  4172 ;; Parameters:    Size  Location     Type
  4173 ;;		None
  4174 ;; Auto vars:     Size  Location     Type
  4175 ;;		None
  4176 ;; Return value:  Size  Location     Type
  4177 ;;		None               void
  4178 ;; Registers used:
  4179 ;;		wreg, fsr2l, fsr2h, status,2, status,0, prodl, prodh, cstack
  4180 ;; Tracked objects:
  4181 ;;		On entry : 0/0
  4182 ;;		On exit  : 0/0
  4183 ;;		Unchanged: 0/0
  4184 ;; Data sizes:     COMRAM   BANK0   BANK1   BANK2   BANK3   BANK4   BANK5   BANK6   BANK7   BANK8   BANK9  BANK10  BANK1
      +1  BANK12  BANK13  BANK14
  4185 ;;      Params:         0       0       0       0       0       0       0       0       0       0       0       0       
      +0       0       0       0
  4186 ;;      Locals:         0       0       0       0       0       0       0       0       0       0       0       0       
      +0       0       0       0
  4187 ;;      Temps:         14       0       0       0       0       0       0       0       0       0       0       0       
      +0       0       0       0
  4188 ;;      Totals:        14       0       0       0       0       0       0       0       0       0       0       0       
      +0       0       0       0
  4189 ;;Total ram usage:       14 bytes
  4190 ;; Hardware stack levels used:    1
  4191 ;; Hardware stack levels required when called:    2
  4192 ;; This function calls:
  4193 ;;		_handle_int_adc
  4194 ;; This function is called by:
  4195 ;;		Interrupt level 2
  4196 ;; This function uses a non-reentrant model
  4197 ;;
  4198                           
  4199                           	psect	intcode
  4200  000008                     __pintcode:
  4201                           	opt stack 0
  4202  000008                     _InterruptHandler:
  4203                           	opt stack 26
  4204                           
  4205                           ;incstack = 0
  4206  000008  CFFA F00D          	movff	pclath,??_InterruptHandler
  4207  00000C  CFFB F00E          	movff	pclatu,??_InterruptHandler+1
  4208  000010  CFE9 F00F          	movff	fsr0l,??_InterruptHandler+2
  4209  000014  CFEA F010          	movff	fsr0h,??_InterruptHandler+3
  4210  000018  CFE1 F011          	movff	fsr1l,??_InterruptHandler+4
  4211  00001C  CFE2 F012          	movff	fsr1h,??_InterruptHandler+5
  4212  000020  CFD9 F013          	movff	fsr2l,??_InterruptHandler+6
  4213  000024  CFDA F014          	movff	fsr2h,??_InterruptHandler+7
  4214  000028  CFF3 F015          	movff	prodl,??_InterruptHandler+8
  4215  00002C  CFF4 F016          	movff	prodh,??_InterruptHandler+9
  4216  000030  CFF6 F017          	movff	tblptrl,??_InterruptHandler+10
  4217  000034  CFF7 F018          	movff	tblptrh,??_InterruptHandler+11
  4218  000038  CFF8 F019          	movff	tblptru,??_InterruptHandler+12
  4219  00003C  CFF5 F01A          	movff	tablat,??_InterruptHandler+13
  4220                           
  4221                           ;interrupts.c: 39: if (PIR1bits.TMR1IF) {
  4222  000040  A09E               	btfss	3998,0,c	;volatile
  4223  000042  D007               	goto	i2l140
  4224                           
  4225                           ;interrupts.c: 40: PIR1bits.TMR1IF = 0;
  4226  000044  909E               	bcf	3998,0,c	;volatile
  4227                           
  4228                           ;interrupts.c: 42: delay_2s--;
  4229  000046  065B               	decf	_delay_2s,f,c
  4230                           
  4231                           ;interrupts.c: 44: if ( !delay_2s ) {
  4232  000048  665B               	tstfsz	_delay_2s,c
  4233  00004A  D008               	goto	i2l144
  4234                           
  4235                           ;interrupts.c: 45: delay_2s = 1;
  4236  00004C  0E01               	movlw	1
  4237  00004E  6E5B               	movwf	_delay_2s,c
  4238  000050  D005               	goto	i2l144
  4239  000052                     i2l140:
  4240  000052  AC9E               	btfss	3998,6,c	;volatile
  4241  000054  D003               	goto	i2l144
  4242                           
  4243                           ;interrupts.c: 48: PIR1bits.ADIF = 0;
  4244  000056  9C9E               	bcf	3998,6,c	;volatile
  4245                           
  4246                           ;interrupts.c: 50: handle_int_adc();
  4247  000058  ECED  F089         	call	_handle_int_adc	;wreg free
  4248  00005C                     i2l144:
  4249  00005C  C01A  FFF5         	movff	??_InterruptHandler+13,tablat
  4250  000060  C019  FFF8         	movff	??_InterruptHandler+12,tblptru
  4251  000064  C018  FFF7         	movff	??_InterruptHandler+11,tblptrh
  4252  000068  C017  FFF6         	movff	??_InterruptHandler+10,tblptrl
  4253  00006C  C016  FFF4         	movff	??_InterruptHandler+9,prodh
  4254  000070  C015  FFF3         	movff	??_InterruptHandler+8,prodl
  4255  000074  C014  FFDA         	movff	??_InterruptHandler+7,fsr2h
  4256  000078  C013  FFD9         	movff	??_InterruptHandler+6,fsr2l
  4257  00007C  C012  FFE2         	movff	??_InterruptHandler+5,fsr1h
  4258  000080  C011  FFE1         	movff	??_InterruptHandler+4,fsr1l
  4259  000084  C010  FFEA         	movff	??_InterruptHandler+3,fsr0h
  4260  000088  C00F  FFE9         	movff	??_InterruptHandler+2,fsr0l
  4261  00008C  C00E  FFFB         	movff	??_InterruptHandler+1,pclatu
  4262  000090  C00D  FFFA         	movff	??_InterruptHandler,pclath
  4263  000094  0011               	retfie		f
  4264  000096                     __end_of_InterruptHandler:
  4265                           	opt stack 0
  4266                           pclatu	equ	0xFFB
  4267                           pclath	equ	0xFFA
  4268                           tblptru	equ	0xFF8
  4269                           tblptrh	equ	0xFF7
  4270                           tblptrl	equ	0xFF6
  4271                           tablat	equ	0xFF5
  4272                           prodh	equ	0xFF4
  4273                           prodl	equ	0xFF3
  4274                           intcon	equ	0xFF2
  4275                           postinc0	equ	0xFEE
  4276                           fsr0h	equ	0xFEA
  4277                           fsr0l	equ	0xFE9
  4278                           wreg	equ	0xFE8
  4279                           postdec1	equ	0xFE5
  4280                           fsr1h	equ	0xFE2
  4281                           fsr1l	equ	0xFE1
  4282                           fsr2h	equ	0xFDA
  4283                           fsr2l	equ	0xFD9
  4284                           status	equ	0xFD8
  4285                           
  4286 ;; *************** function _handle_int_adc *****************
  4287 ;; Defined at:
  4288 ;;		line 62 in file "lplc-adc.c"
  4289 ;; Parameters:    Size  Location     Type
  4290 ;;		None
  4291 ;; Auto vars:     Size  Location     Type
  4292 ;;  prev_sample     1   11[COMRAM] unsigned char 
  4293 ;;  next_sample     1   10[COMRAM] unsigned char 
  4294 ;; Return value:  Size  Location     Type
  4295 ;;		None               void
  4296 ;; Registers used:
  4297 ;;		wreg, fsr2l, fsr2h, status,2, status,0, prodl, prodh, cstack
  4298 ;; Tracked objects:
  4299 ;;		On entry : 0/0
  4300 ;;		On exit  : 0/0
  4301 ;;		Unchanged: 0/0
  4302 ;; Data sizes:     COMRAM   BANK0   BANK1   BANK2   BANK3   BANK4   BANK5   BANK6   BANK7   BANK8   BANK9  BANK10  BANK1
      +1  BANK12  BANK13  BANK14
  4303 ;;      Params:         0       0       0       0       0       0       0       0       0       0       0       0       
      +0       0       0       0
  4304 ;;      Locals:         2       0       0       0       0       0       0       0       0       0       0       0       
      +0       0       0       0
  4305 ;;      Temps:          2       0       0       0       0       0       0       0       0       0       0       0       
      +0       0       0       0
  4306 ;;      Totals:         4       0       0       0       0       0       0       0       0       0       0       0       
      +0       0       0       0
  4307 ;;Total ram usage:        4 bytes
  4308 ;; Hardware stack levels used:    1
  4309 ;; Hardware stack levels required when called:    1
  4310 ;; This function calls:
  4311 ;;		_ReadADC
  4312 ;;		___awdiv
  4313 ;;		___wmul
  4314 ;; This function is called by:
  4315 ;;		_InterruptHandler
  4316 ;; This function uses a non-reentrant model
  4317 ;;
  4318                           
  4319                           	psect	text7
  4320  0113DA                     __ptext7:
  4321                           	opt stack 0
  4322  0113DA                     _handle_int_adc:
  4323                           	opt stack 26
  4324                           
  4325                           ;lplc-adc.c: 69: unsigned char next_sample = 0;
  4326                           
  4327                           ;incstack = 0
  4328  0113DA  0E00               	movlw	0
  4329  0113DC  6E0B               	movwf	handle_int_adc@next_sample,c
  4330                           
  4331                           ;lplc-adc.c: 70: unsigned char prev_sample = 0;
  4332  0113DE  0E00               	movlw	0
  4333  0113E0  6E0C               	movwf	handle_int_adc@prev_sample,c
  4334                           
  4335                           ;lplc-adc.c: 72: current_adc = ReadADC();
  4336  0113E2  EC37  F08B         	call	_ReadADC	;wreg free
  4337  0113E6  C001  F053         	movff	?_ReadADC,_current_adc
  4338  0113EA  C002  F054         	movff	?_ReadADC+1,_current_adc+1
  4339                           
  4340                           ;lplc-adc.c: 74: if (!samples_ready) {
  4341  0113EE  665C               	tstfsz	_samples_ready,c
  4342  0113F0  0012               	return	
  4343                           
  4344                           ;lplc-adc.c: 76: prev_sample = samples[current_buff][sample_index];
  4345  0113F2  C05A  F001         	movff	_current_buff,___wmul@multiplier
  4346  0113F6  6A02               	clrf	___wmul@multiplier+1,c
  4347  0113F8  0E01               	movlw	1
  4348  0113FA  6E04               	movwf	___wmul@multiplicand+1,c
  4349  0113FC  0E34               	movlw	52
  4350  0113FE  6E03               	movwf	___wmul@multiplicand,c
  4351  011400  ECF7  F08A         	call	___wmul	;wreg free
  4352  011404  0E48               	movlw	low _samples
  4353  011406  6E09               	movwf	??_handle_int_adc& (0+255),c
  4354  011408  0E0C               	movlw	high _samples
  4355  01140A  6E0A               	movwf	(??_handle_int_adc+1)& (0+255),c
  4356  01140C  5001               	movf	?___wmul,w,c
  4357  01140E  2609               	addwf	??_handle_int_adc,f,c
  4358  011410  5002               	movf	?___wmul+1,w,c
  4359  011412  220A               	addwfc	??_handle_int_adc+1,f,c
  4360  011414  5055               	movf	_sample_index,w,c
  4361  011416  2409               	addwf	??_handle_int_adc,w,c
  4362  011418  6ED9               	movwf	fsr2l,c
  4363  01141A  5056               	movf	_sample_index+1,w,c
  4364  01141C  200A               	addwfc	??_handle_int_adc+1,w,c
  4365  01141E  6EDA               	movwf	fsr2h,c
  4366  011420  50DF               	movf	indf2,w,c
  4367  011422  6E0C               	movwf	handle_int_adc@prev_sample,c
  4368                           
  4369                           ;lplc-adc.c: 78: samples[current_buff][sample_index++] = 11 + ((current_adc << 1)/13);
  4370  011424  C05A  F001         	movff	_current_buff,___wmul@multiplier
  4371  011428  6A02               	clrf	___wmul@multiplier+1,c
  4372  01142A  0E01               	movlw	1
  4373  01142C  6E04               	movwf	___wmul@multiplicand+1,c
  4374  01142E  0E34               	movlw	52
  4375  011430  6E03               	movwf	___wmul@multiplicand,c
  4376  011432  ECF7  F08A         	call	___wmul	;wreg free
  4377  011436  0E48               	movlw	low _samples
  4378  011438  6E09               	movwf	??_handle_int_adc& (0+255),c
  4379  01143A  0E0C               	movlw	high _samples
  4380  01143C  6E0A               	movwf	(??_handle_int_adc+1)& (0+255),c
  4381  01143E  5001               	movf	?___wmul,w,c
  4382  011440  2609               	addwf	??_handle_int_adc,f,c
  4383  011442  5002               	movf	?___wmul+1,w,c
  4384  011444  220A               	addwfc	??_handle_int_adc+1,f,c
  4385  011446  5055               	movf	_sample_index,w,c
  4386  011448  2409               	addwf	??_handle_int_adc,w,c
  4387  01144A  6ED9               	movwf	fsr2l,c
  4388  01144C  5056               	movf	_sample_index+1,w,c
  4389  01144E  200A               	addwfc	??_handle_int_adc+1,w,c
  4390  011450  6EDA               	movwf	fsr2h,c
  4391  011452  90D8               	bcf	status,0,c
  4392  011454  3453               	rlcf	_current_adc,w,c
  4393  011456  6E01               	movwf	___awdiv@dividend,c
  4394  011458  3454               	rlcf	_current_adc+1,w,c
  4395  01145A  6E02               	movwf	___awdiv@dividend+1,c
  4396  01145C  0E00               	movlw	0
  4397  01145E  6E04               	movwf	___awdiv@divisor+1,c
  4398  011460  0E0D               	movlw	13
  4399  011462  6E03               	movwf	___awdiv@divisor,c
  4400  011464  EC86  F08A         	call	___awdiv	;wreg free
  4401  011468  5001               	movf	?___awdiv,w,c
  4402  01146A  0F0B               	addlw	11
  4403  01146C  6EDF               	movwf	indf2,c
  4404  01146E  4A55               	infsnz	_sample_index,f,c
  4405  011470  2A56               	incf	_sample_index+1,f,c
  4406                           
  4407                           ;lplc-adc.c: 81: next_sample = samples[current_buff][sample_index];
  4408  011472  C05A  F001         	movff	_current_buff,___wmul@multiplier
  4409  011476  6A02               	clrf	___wmul@multiplier+1,c
  4410  011478  0E01               	movlw	1
  4411  01147A  6E04               	movwf	___wmul@multiplicand+1,c
  4412  01147C  0E34               	movlw	52
  4413  01147E  6E03               	movwf	___wmul@multiplicand,c
  4414  011480  ECF7  F08A         	call	___wmul	;wreg free
  4415  011484  0E48               	movlw	low _samples
  4416  011486  6E09               	movwf	??_handle_int_adc& (0+255),c
  4417  011488  0E0C               	movlw	high _samples
  4418  01148A  6E0A               	movwf	(??_handle_int_adc+1)& (0+255),c
  4419  01148C  5001               	movf	?___wmul,w,c
  4420  01148E  2609               	addwf	??_handle_int_adc,f,c
  4421  011490  5002               	movf	?___wmul+1,w,c
  4422  011492  220A               	addwfc	??_handle_int_adc+1,f,c
  4423  011494  5055               	movf	_sample_index,w,c
  4424  011496  2409               	addwf	??_handle_int_adc,w,c
  4425  011498  6ED9               	movwf	fsr2l,c
  4426  01149A  5056               	movf	_sample_index+1,w,c
  4427  01149C  200A               	addwfc	??_handle_int_adc+1,w,c
  4428  01149E  6EDA               	movwf	fsr2h,c
  4429  0114A0  50DF               	movf	indf2,w,c
  4430  0114A2  6E0B               	movwf	handle_int_adc@next_sample,c
  4431                           
  4432                           ;lplc-adc.c: 84: if((prev_sample <= (TRIGGER_LINE)) && (next_sample >= TRIGGER_LINE) && 
      +                          (!RISING_EDGE)) {
  4433  0114A4  500C               	movf	handle_int_adc@prev_sample,w,c
  4434  0114A6  5C5F               	subwf	_TRIGGER_LINE,w,c
  4435  0114A8  A0D8               	btfss	status,0,c
  4436  0114AA  D00C               	goto	i2l1441
  4437  0114AC  505F               	movf	_TRIGGER_LINE,w,c
  4438  0114AE  5C0B               	subwf	handle_int_adc@next_sample,w,c
  4439  0114B0  A0D8               	btfss	status,0,c
  4440  0114B2  D008               	goto	i2l1441
  4441  0114B4  5050               	movf	_RISING_EDGE+1,w,c
  4442  0114B6  104F               	iorwf	_RISING_EDGE,w,c
  4443  0114B8  A4D8               	btfss	status,2,c
  4444  0114BA  D004               	goto	i2l1441
  4445                           
  4446                           ;lplc-adc.c: 85: FALLING_EDGE = 1;
  4447  0114BC  0E00               	movlw	0
  4448  0114BE  6E46               	movwf	_FALLING_EDGE+1,c
  4449  0114C0  0E01               	movlw	1
  4450  0114C2  6E45               	movwf	_FALLING_EDGE,c
  4451  0114C4                     i2l1441:
  4452                           
  4453                           ;lplc-adc.c: 86: }
  4454                           ;lplc-adc.c: 88: if((prev_sample >= (TRIGGER_LINE)) && (next_sample <= TRIGGER_LINE) && 
      +                          (!FALLING_EDGE)) {
  4455  0114C4  505F               	movf	_TRIGGER_LINE,w,c
  4456  0114C6  5C0C               	subwf	handle_int_adc@prev_sample,w,c
  4457  0114C8  A0D8               	btfss	status,0,c
  4458  0114CA  D00C               	goto	i2l1449
  4459  0114CC  500B               	movf	handle_int_adc@next_sample,w,c
  4460  0114CE  5C5F               	subwf	_TRIGGER_LINE,w,c
  4461  0114D0  A0D8               	btfss	status,0,c
  4462  0114D2  D008               	goto	i2l1449
  4463  0114D4  5046               	movf	_FALLING_EDGE+1,w,c
  4464  0114D6  1045               	iorwf	_FALLING_EDGE,w,c
  4465  0114D8  A4D8               	btfss	status,2,c
  4466  0114DA  D004               	goto	i2l1449
  4467                           
  4468                           ;lplc-adc.c: 89: RISING_EDGE = 1;
  4469  0114DC  0E00               	movlw	0
  4470  0114DE  6E50               	movwf	_RISING_EDGE+1,c
  4471  0114E0  0E01               	movlw	1
  4472  0114E2  6E4F               	movwf	_RISING_EDGE,c
  4473  0114E4                     i2l1449:
  4474                           
  4475                           ;lplc-adc.c: 90: }
  4476                           ;lplc-adc.c: 92: if (sample_index == 308) {
  4477  0114E4  0456               	decf	_sample_index+1,w,c
  4478  0114E6  0E34               	movlw	52
  4479  0114E8  B4D8               	btfsc	status,2,c
  4480  0114EA  1855               	xorwf	_sample_index,w,c
  4481  0114EC  A4D8               	btfss	status,2,c
  4482  0114EE  0012               	return	
  4483                           
  4484                           ;lplc-adc.c: 94: current_buff = (current_buff == 0) ? 1 : 0;
  4485  0114F0  505A               	movf	_current_buff,w,c
  4486  0114F2  A4D8               	btfss	status,2,c
  4487  0114F4  D002               	goto	i2u55_40
  4488  0114F6  0E01               	movlw	1
  4489  0114F8  D001               	goto	i2u55_46
  4490  0114FA                     i2u55_40:
  4491  0114FA  0E00               	movlw	0
  4492  0114FC                     i2u55_46:
  4493  0114FC  6E5A               	movwf	_current_buff,c
  4494                           
  4495                           ;lplc-adc.c: 95: sample_index = 0;
  4496  0114FE  0E00               	movlw	0
  4497  011500  6E56               	movwf	_sample_index+1,c
  4498  011502  0E00               	movlw	0
  4499  011504  6E55               	movwf	_sample_index,c
  4500                           
  4501                           ;lplc-adc.c: 96: samples_ready = 1;
  4502  011506  0E01               	movlw	1
  4503  011508  6E5C               	movwf	_samples_ready,c
  4504  01150A  0012               	return	
  4505  01150C                     __end_of_handle_int_adc:
  4506                           	opt stack 0
  4507                           pclatu	equ	0xFFB
  4508                           pclath	equ	0xFFA
  4509                           tblptru	equ	0xFF8
  4510                           tblptrh	equ	0xFF7
  4511                           tblptrl	equ	0xFF6
  4512                           tablat	equ	0xFF5
  4513                           prodh	equ	0xFF4
  4514                           prodl	equ	0xFF3
  4515                           intcon	equ	0xFF2
  4516                           postinc0	equ	0xFEE
  4517                           fsr0h	equ	0xFEA
  4518                           fsr0l	equ	0xFE9
  4519                           wreg	equ	0xFE8
  4520                           postdec1	equ	0xFE5
  4521                           fsr1h	equ	0xFE2
  4522                           fsr1l	equ	0xFE1
  4523                           indf2	equ	0xFDF
  4524                           fsr2h	equ	0xFDA
  4525                           fsr2l	equ	0xFD9
  4526                           status	equ	0xFD8
  4527                           
  4528 ;; *************** function ___wmul *****************
  4529 ;; Defined at:
  4530 ;;		line 15 in file "C:\Program Files (x86)\Microchip\xc8\v1.32\sources\common\Umul16.c"
  4531 ;; Parameters:    Size  Location     Type
  4532 ;;  multiplier      2    0[COMRAM] unsigned int 
  4533 ;;  multiplicand    2    2[COMRAM] unsigned int 
  4534 ;; Auto vars:     Size  Location     Type
  4535 ;;  product         2    4[COMRAM] unsigned int 
  4536 ;; Return value:  Size  Location     Type
  4537 ;;                  2    0[COMRAM] unsigned int 
  4538 ;; Registers used:
  4539 ;;		wreg, status,2, status,0, prodl, prodh
  4540 ;; Tracked objects:
  4541 ;;		On entry : 0/0
  4542 ;;		On exit  : 0/0
  4543 ;;		Unchanged: 0/0
  4544 ;; Data sizes:     COMRAM   BANK0   BANK1   BANK2   BANK3   BANK4   BANK5   BANK6   BANK7   BANK8   BANK9  BANK10  BANK1
      +1  BANK12  BANK13  BANK14
  4545 ;;      Params:         4       0       0       0       0       0       0       0       0       0       0       0       
      +0       0       0       0
  4546 ;;      Locals:         2       0       0       0       0       0       0       0       0       0       0       0       
      +0       0       0       0
  4547 ;;      Temps:          0       0       0       0       0       0       0       0       0       0       0       0       
      +0       0       0       0
  4548 ;;      Totals:         6       0       0       0       0       0       0       0       0       0       0       0       
      +0       0       0       0
  4549 ;;Total ram usage:        6 bytes
  4550 ;; Hardware stack levels used:    1
  4551 ;; This function calls:
  4552 ;;		Nothing
  4553 ;; This function is called by:
  4554 ;;		_handle_int_adc
  4555 ;;		_PWMDuty
  4556 ;; This function uses a non-reentrant model
  4557 ;;
  4558                           
  4559                           	psect	text8
  4560  0115EE                     __ptext8:
  4561                           	opt stack 0
  4562  0115EE                     ___wmul:
  4563                           	opt stack 26
  4564                           
  4565                           ;incstack = 0
  4566  0115EE  5001               	movf	___wmul@multiplier,w,c
  4567  0115F0  0203               	mulwf	___wmul@multiplicand,c
  4568  0115F2  CFF3 F005          	movff	prodl,___wmul@product
  4569  0115F6  CFF4 F006          	movff	prodh,___wmul@product+1
  4570  0115FA  5001               	movf	___wmul@multiplier,w,c
  4571  0115FC  0204               	mulwf	___wmul@multiplicand+1,c
  4572  0115FE  50F3               	movf	prodl,w,c
  4573  011600  2606               	addwf	___wmul@product+1,f,c
  4574  011602  5002               	movf	___wmul@multiplier+1,w,c
  4575  011604  0203               	mulwf	___wmul@multiplicand,c
  4576  011606  50F3               	movf	prodl,w,c
  4577  011608  2606               	addwf	___wmul@product+1,f,c
  4578  01160A  C005  F001         	movff	___wmul@product,?___wmul
  4579  01160E  C006  F002         	movff	___wmul@product+1,?___wmul+1
  4580  011612  0012               	return	
  4581  011614                     __end_of___wmul:
  4582                           	opt stack 0
  4583                           pclatu	equ	0xFFB
  4584                           pclath	equ	0xFFA
  4585                           tblptru	equ	0xFF8
  4586                           tblptrh	equ	0xFF7
  4587                           tblptrl	equ	0xFF6
  4588                           tablat	equ	0xFF5
  4589                           prodh	equ	0xFF4
  4590                           prodl	equ	0xFF3
  4591                           intcon	equ	0xFF2
  4592                           postinc0	equ	0xFEE
  4593                           fsr0h	equ	0xFEA
  4594                           fsr0l	equ	0xFE9
  4595                           wreg	equ	0xFE8
  4596                           postdec1	equ	0xFE5
  4597                           fsr1h	equ	0xFE2
  4598                           fsr1l	equ	0xFE1
  4599                           indf2	equ	0xFDF
  4600                           fsr2h	equ	0xFDA
  4601                           fsr2l	equ	0xFD9
  4602                           status	equ	0xFD8
  4603                           
  4604 ;; *************** function ___awdiv *****************
  4605 ;; Defined at:
  4606 ;;		line 8 in file "C:\Program Files (x86)\Microchip\xc8\v1.32\sources\common\awdiv.c"
  4607 ;; Parameters:    Size  Location     Type
  4608 ;;  dividend        2    0[COMRAM] int 
  4609 ;;  divisor         2    2[COMRAM] int 
  4610 ;; Auto vars:     Size  Location     Type
  4611 ;;  quotient        2    6[COMRAM] int 
  4612 ;;  sign            1    5[COMRAM] unsigned char 
  4613 ;;  counter         1    4[COMRAM] unsigned char 
  4614 ;; Return value:  Size  Location     Type
  4615 ;;                  2    0[COMRAM] int 
  4616 ;; Registers used:
  4617 ;;		wreg, status,2, status,0, prodl
  4618 ;; Tracked objects:
  4619 ;;		On entry : 0/0
  4620 ;;		On exit  : 0/0
  4621 ;;		Unchanged: 0/0
  4622 ;; Data sizes:     COMRAM   BANK0   BANK1   BANK2   BANK3   BANK4   BANK5   BANK6   BANK7   BANK8   BANK9  BANK10  BANK1
      +1  BANK12  BANK13  BANK14
  4623 ;;      Params:         4       0       0       0       0       0       0       0       0       0       0       0       
      +0       0       0       0
  4624 ;;      Locals:         4       0       0       0       0       0       0       0       0       0       0       0       
      +0       0       0       0
  4625 ;;      Temps:          0       0       0       0       0       0       0       0       0       0       0       0       
      +0       0       0       0
  4626 ;;      Totals:         8       0       0       0       0       0       0       0       0       0       0       0       
      +0       0       0       0
  4627 ;;Total ram usage:        8 bytes
  4628 ;; Hardware stack levels used:    1
  4629 ;; This function calls:
  4630 ;;		Nothing
  4631 ;; This function is called by:
  4632 ;;		_handle_int_adc
  4633 ;;		_PWMDuty
  4634 ;; This function uses a non-reentrant model
  4635 ;;
  4636                           
  4637                           	psect	text9
  4638  01150C                     __ptext9:
  4639                           	opt stack 0
  4640  01150C                     ___awdiv:
  4641                           	opt stack 26
  4642                           
  4643                           ;incstack = 0
  4644  01150C  0E00               	movlw	0
  4645  01150E  6E06               	movwf	___awdiv@sign,c
  4646  011510  5004               	movf	___awdiv@divisor+1,w,c
  4647  011512  0A80               	xorlw	128
  4648  011514  6EF3               	movwf	prodl,c
  4649  011516  0E80               	movlw	128
  4650  011518  5CF3               	subwf	prodl,w,c
  4651  01151A  0E00               	movlw	0
  4652  01151C  B4D8               	btfsc	status,2,c
  4653  01151E  5C03               	subwf	___awdiv@divisor,w,c
  4654  011520  B0D8               	btfsc	status,0,c
  4655  011522  D006               	goto	i2l1267
  4656  011524  6C03               	negf	___awdiv@divisor,c
  4657  011526  1E04               	comf	___awdiv@divisor+1,f,c
  4658  011528  B0D8               	btfsc	status,0,c
  4659  01152A  2A04               	incf	___awdiv@divisor+1,f,c
  4660  01152C  0E01               	movlw	1
  4661  01152E  6E06               	movwf	___awdiv@sign,c
  4662  011530                     i2l1267:
  4663  011530  5002               	movf	___awdiv@dividend+1,w,c
  4664  011532  0A80               	xorlw	128
  4665  011534  6EF3               	movwf	prodl,c
  4666  011536  0E80               	movlw	128
  4667  011538  5CF3               	subwf	prodl,w,c
  4668  01153A  0E00               	movlw	0
  4669  01153C  B4D8               	btfsc	status,2,c
  4670  01153E  5C01               	subwf	___awdiv@dividend,w,c
  4671  011540  B0D8               	btfsc	status,0,c
  4672  011542  D006               	goto	i2l1273
  4673  011544  6C01               	negf	___awdiv@dividend,c
  4674  011546  1E02               	comf	___awdiv@dividend+1,f,c
  4675  011548  B0D8               	btfsc	status,0,c
  4676  01154A  2A02               	incf	___awdiv@dividend+1,f,c
  4677  01154C  0E01               	movlw	1
  4678  01154E  1A06               	xorwf	___awdiv@sign,f,c
  4679  011550                     i2l1273:
  4680  011550  0E00               	movlw	0
  4681  011552  6E08               	movwf	___awdiv@quotient+1,c
  4682  011554  0E00               	movlw	0
  4683  011556  6E07               	movwf	___awdiv@quotient,c
  4684  011558  5004               	movf	___awdiv@divisor+1,w,c
  4685  01155A  1003               	iorwf	___awdiv@divisor,w,c
  4686  01155C  B4D8               	btfsc	status,2,c
  4687  01155E  D01C               	goto	i2l1295
  4688  011560  0E01               	movlw	1
  4689  011562  6E05               	movwf	___awdiv@counter,c
  4690  011564  D004               	goto	i2l1281
  4691  011566                     i2l1279:
  4692  011566  90D8               	bcf	status,0,c
  4693  011568  3603               	rlcf	___awdiv@divisor,f,c
  4694  01156A  3604               	rlcf	___awdiv@divisor+1,f,c
  4695  01156C  2A05               	incf	___awdiv@counter,f,c
  4696  01156E                     i2l1281:
  4697  01156E  AE04               	btfss	___awdiv@divisor+1,7,c
  4698  011570  D7FA               	goto	i2l1279
  4699  011572                     i2l1283:
  4700  011572  90D8               	bcf	status,0,c
  4701  011574  3607               	rlcf	___awdiv@quotient,f,c
  4702  011576  3608               	rlcf	___awdiv@quotient+1,f,c
  4703  011578  5003               	movf	___awdiv@divisor,w,c
  4704  01157A  5C01               	subwf	___awdiv@dividend,w,c
  4705  01157C  5004               	movf	___awdiv@divisor+1,w,c
  4706  01157E  5802               	subwfb	___awdiv@dividend+1,w,c
  4707  011580  A0D8               	btfss	status,0,c
  4708  011582  D005               	goto	i2l1291
  4709  011584  5003               	movf	___awdiv@divisor,w,c
  4710  011586  5E01               	subwf	___awdiv@dividend,f,c
  4711  011588  5004               	movf	___awdiv@divisor+1,w,c
  4712  01158A  5A02               	subwfb	___awdiv@dividend+1,f,c
  4713  01158C  8007               	bsf	___awdiv@quotient,0,c
  4714  01158E                     i2l1291:
  4715  01158E  90D8               	bcf	status,0,c
  4716  011590  3204               	rrcf	___awdiv@divisor+1,f,c
  4717  011592  3203               	rrcf	___awdiv@divisor,f,c
  4718  011594  2E05               	decfsz	___awdiv@counter,f,c
  4719  011596  D7ED               	goto	i2l1283
  4720  011598                     i2l1295:
  4721  011598  5006               	movf	___awdiv@sign,w,c
  4722  01159A  B4D8               	btfsc	status,2,c
  4723  01159C  D004               	goto	i2l1299
  4724  01159E  6C07               	negf	___awdiv@quotient,c
  4725  0115A0  1E08               	comf	___awdiv@quotient+1,f,c
  4726  0115A2  B0D8               	btfsc	status,0,c
  4727  0115A4  2A08               	incf	___awdiv@quotient+1,f,c
  4728  0115A6                     i2l1299:
  4729  0115A6  C007  F001         	movff	___awdiv@quotient,?___awdiv
  4730  0115AA  C008  F002         	movff	___awdiv@quotient+1,?___awdiv+1
  4731  0115AE  0012               	return	
  4732  0115B0                     __end_of___awdiv:
  4733                           	opt stack 0
  4734                           pclatu	equ	0xFFB
  4735                           pclath	equ	0xFFA
  4736                           tblptru	equ	0xFF8
  4737                           tblptrh	equ	0xFF7
  4738                           tblptrl	equ	0xFF6
  4739                           tablat	equ	0xFF5
  4740                           prodh	equ	0xFF4
  4741                           prodl	equ	0xFF3
  4742                           intcon	equ	0xFF2
  4743                           postinc0	equ	0xFEE
  4744                           fsr0h	equ	0xFEA
  4745                           fsr0l	equ	0xFE9
  4746                           wreg	equ	0xFE8
  4747                           postdec1	equ	0xFE5
  4748                           fsr1h	equ	0xFE2
  4749                           fsr1l	equ	0xFE1
  4750                           indf2	equ	0xFDF
  4751                           fsr2h	equ	0xFDA
  4752                           fsr2l	equ	0xFD9
  4753                           status	equ	0xFD8
  4754                           
  4755 ;; *************** function _ReadADC *****************
  4756 ;; Defined at:
  4757 ;;		line 24 in file "C:\Program Files (x86)\Microchip\xc8\v1.32\sources\pic18\plib\ADC\adcread.c"
  4758 ;; Parameters:    Size  Location     Type
  4759 ;;		None
  4760 ;; Auto vars:     Size  Location     Type
  4761 ;;		None
  4762 ;; Return value:  Size  Location     Type
  4763 ;;                  2    0[COMRAM] int 
  4764 ;; Registers used:
  4765 ;;		wreg, status,2
  4766 ;; Tracked objects:
  4767 ;;		On entry : 0/0
  4768 ;;		On exit  : 0/0
  4769 ;;		Unchanged: 0/0
  4770 ;; Data sizes:     COMRAM   BANK0   BANK1   BANK2   BANK3   BANK4   BANK5   BANK6   BANK7   BANK8   BANK9  BANK10  BANK1
      +1  BANK12  BANK13  BANK14
  4771 ;;      Params:         2       0       0       0       0       0       0       0       0       0       0       0       
      +0       0       0       0
  4772 ;;      Locals:         0       0       0       0       0       0       0       0       0       0       0       0       
      +0       0       0       0
  4773 ;;      Temps:          0       0       0       0       0       0       0       0       0       0       0       0       
      +0       0       0       0
  4774 ;;      Totals:         2       0       0       0       0       0       0       0       0       0       0       0       
      +0       0       0       0
  4775 ;;Total ram usage:        2 bytes
  4776 ;; Hardware stack levels used:    1
  4777 ;; This function calls:
  4778 ;;		Nothing
  4779 ;; This function is called by:
  4780 ;;		_handle_int_adc
  4781 ;;		_getval_adc
  4782 ;; This function uses a non-reentrant model
  4783 ;;
  4784                           
  4785                           	psect	text10
  4786  01166E                     __ptext10:
  4787                           	opt stack 0
  4788  01166E                     _ReadADC:
  4789                           	opt stack 26
  4790                           
  4791                           ;incstack = 0
  4792  01166E  50C4               	movf	4036,w,c	;volatile
  4793  011670  6E02               	movwf	?_ReadADC+1,c
  4794  011672  50C3               	movf	4035,w,c	;volatile
  4795  011674  6E01               	movwf	?_ReadADC,c
  4796  011676  0012               	return	
  4797  011678                     __end_of_ReadADC:
  4798                           	opt stack 0
  4799                           pclatu	equ	0xFFB
  4800                           pclath	equ	0xFFA
  4801                           tblptru	equ	0xFF8
  4802                           tblptrh	equ	0xFF7
  4803                           tblptrl	equ	0xFF6
  4804                           tablat	equ	0xFF5
  4805                           prodh	equ	0xFF4
  4806                           prodl	equ	0xFF3
  4807                           intcon	equ	0xFF2
  4808                           postinc0	equ	0xFEE
  4809                           fsr0h	equ	0xFEA
  4810                           fsr0l	equ	0xFE9
  4811                           wreg	equ	0xFE8
  4812                           postdec1	equ	0xFE5
  4813                           fsr1h	equ	0xFE2
  4814                           fsr1l	equ	0xFE1
  4815                           indf2	equ	0xFDF
  4816                           fsr2h	equ	0xFDA
  4817                           fsr2l	equ	0xFD9
  4818                           status	equ	0xFD8
  4819                           pclatu	equ	0xFFB
  4820                           pclath	equ	0xFFA
  4821                           tblptru	equ	0xFF8
  4822                           tblptrh	equ	0xFF7
  4823                           tblptrl	equ	0xFF6
  4824                           tablat	equ	0xFF5
  4825                           prodh	equ	0xFF4
  4826                           prodl	equ	0xFF3
  4827                           intcon	equ	0xFF2
  4828                           postinc0	equ	0xFEE
  4829                           fsr0h	equ	0xFEA
  4830                           fsr0l	equ	0xFE9
  4831                           wreg	equ	0xFE8
  4832                           postdec1	equ	0xFE5
  4833                           fsr1h	equ	0xFE2
  4834                           fsr1l	equ	0xFE1
  4835                           indf2	equ	0xFDF
  4836                           fsr2h	equ	0xFDA
  4837                           fsr2l	equ	0xFD9
  4838                           status	equ	0xFD8
  4839                           
  4840                           	psect	rparam
  4841  0000                     pclatu	equ	0xFFB
  4842                           pclath	equ	0xFFA
  4843                           tblptru	equ	0xFF8
  4844                           tblptrh	equ	0xFF7
  4845                           tblptrl	equ	0xFF6
  4846                           tablat	equ	0xFF5
  4847                           prodh	equ	0xFF4
  4848                           prodl	equ	0xFF3
  4849                           intcon	equ	0xFF2
  4850                           postinc0	equ	0xFEE
  4851                           fsr0h	equ	0xFEA
  4852                           fsr0l	equ	0xFE9
  4853                           wreg	equ	0xFE8
  4854                           postdec1	equ	0xFE5
  4855                           fsr1h	equ	0xFE2
  4856                           fsr1l	equ	0xFE1
  4857                           indf2	equ	0xFDF
  4858                           fsr2h	equ	0xFDA
  4859                           fsr2l	equ	0xFD9
  4860                           status	equ	0xFD8


Data Sizes:
    Strings     72
    Constant    490
    Data        2
    BSS         649
    Persistent  0
    Stack       0

Auto Spaces:
    Space          Size  Autos    Used
    COMRAM           95     60      95
    BANK0           160      0       0
    BANK1           256      0       0
    BANK2           256      0       0
    BANK3           256      0       0
    BANK4           256      0       0
    BANK5           256      0       0
    BANK6           256      0       0
    BANK7           256      0       0
    BANK8           256      0       0
    BANK9           256      0       0
    BANK10          256      0       0
    BANK11          256      0       0
    BANK12          256      0       0
    BANK13          256      0       0
    BANK14          176      0       0

Pointer List with Targets:

    S1515$_cp	PTR const unsigned char  size(2) Largest target is 0

    _val._str._cp	PTR const unsigned char  size(2) Largest target is 0


Critical Paths under _main in COMRAM

    _main->_LEDBLINK
    _delayms->_usleep

Critical Paths under _InterruptHandler in COMRAM

    _InterruptHandler->_handle_int_adc
    _handle_int_adc->___awdiv

Critical Paths under _main in BANK0

    None.

Critical Paths under _InterruptHandler in BANK0

    None.

Critical Paths under _main in BANK1

    None.

Critical Paths under _InterruptHandler in BANK1

    None.

Critical Paths under _main in BANK2

    None.

Critical Paths under _InterruptHandler in BANK2

    None.

Critical Paths under _main in BANK3

    None.

Critical Paths under _InterruptHandler in BANK3

    None.

Critical Paths under _main in BANK4

    None.

Critical Paths under _InterruptHandler in BANK4

    None.

Critical Paths under _main in BANK5

    None.

Critical Paths under _InterruptHandler in BANK5

    None.

Critical Paths under _main in BANK6

    None.

Critical Paths under _InterruptHandler in BANK6

    None.

Critical Paths under _main in BANK7

    None.

Critical Paths under _InterruptHandler in BANK7

    None.

Critical Paths under _main in BANK8

    None.

Critical Paths under _InterruptHandler in BANK8

    None.

Critical Paths under _main in BANK9

    None.

Critical Paths under _InterruptHandler in BANK9

    None.

Critical Paths under _main in BANK10

    None.

Critical Paths under _InterruptHandler in BANK10

    None.

Critical Paths under _main in BANK11

    None.

Critical Paths under _InterruptHandler in BANK11

    None.

Critical Paths under _main in BANK12

    None.

Critical Paths under _InterruptHandler in BANK12

    None.

Critical Paths under _main in BANK13

    None.

Critical Paths under _InterruptHandler in BANK13

    None.

Critical Paths under _main in BANK14

    None.

Critical Paths under _InterruptHandler in BANK14

    None.

Call Graph Tables:

 ---------------------------------------------------------------------------------
 (Depth) Function   	        Calls       Base Space   Used Autos Params    Refs
 ---------------------------------------------------------------------------------
 (0) _main                                                20    15      5   30001
                                             42 COMRAM    18    13      5
                           _LEDBLINK
                            _delayms
                         _timer0Init
                         _timer1Init
 ---------------------------------------------------------------------------------
 (1) _timer1Init                                           0     0      0       0
 ---------------------------------------------------------------------------------
 (1) _timer0Init                                           0     0      0       0
 ---------------------------------------------------------------------------------
 (1) _delayms                                              2     0      2    4179
                                             31 COMRAM     2     0      2
                             _usleep
 ---------------------------------------------------------------------------------
 (2) _usleep                                               5     3      2     772
                                             26 COMRAM     5     3      2
 ---------------------------------------------------------------------------------
 (1) _LEDBLINK                                            16     0     16   24952
                                             26 COMRAM    16     0     16
 ---------------------------------------------------------------------------------
 Estimated maximum stack depth 2
 ---------------------------------------------------------------------------------
 (Depth) Function   	        Calls       Base Space   Used Autos Params    Refs
 ---------------------------------------------------------------------------------
 (3) _InterruptHandler                                    14    14      0     996
                                             12 COMRAM    14    14      0
                     _handle_int_adc
 ---------------------------------------------------------------------------------
 (4) _handle_int_adc                                       4     4      0     996
                                              8 COMRAM     4     4      0
                            _ReadADC
                            ___awdiv
                             ___wmul
 ---------------------------------------------------------------------------------
 (5) ___wmul                                               6     2      4     529
                                              0 COMRAM     6     2      4
 ---------------------------------------------------------------------------------
 (5) ___awdiv                                              8     4      4     407
                                              0 COMRAM     8     4      4
 ---------------------------------------------------------------------------------
 (5) _ReadADC                                              2     0      2       0
                                              0 COMRAM     2     0      2
 ---------------------------------------------------------------------------------
 Estimated maximum stack depth 5
 ---------------------------------------------------------------------------------

 Call Graph Graphs:

 _main (ROOT)
   _LEDBLINK
   _delayms
     _usleep
   _timer0Init
   _timer1Init

 _InterruptHandler (ROOT)
   _handle_int_adc
     _ReadADC
     ___awdiv
     ___wmul

 Address spaces:
Name               Size   Autos  Total    Cost      Usage
BIGRAM             EAF      0     268      35       16.4%
BITBANK13          100      0       0      31        0.0%
BANK13             100      0       0      32        0.0%
BITBANK12          100      0       0      29        0.0%
BANK12             100      0       0      30        0.0%
BITBANK11          100      0       0      27        0.0%
BANK11             100      0       0      28        0.0%
BITBANK10          100      0       0      25        0.0%
BANK10             100      0       0      26        0.0%
BITBANK9           100      0       0      23        0.0%
BANK9              100      0       0      24        0.0%
BITBANK8           100      0       0      21        0.0%
BANK8              100      0       0      22        0.0%
BITBANK7           100      0       0      19        0.0%
BANK7              100      0       0      20        0.0%
BITBANK6           100      0       0      17        0.0%
BANK6              100      0       0      18        0.0%
BITBANK5           100      0       0      15        0.0%
BANK5              100      0       0      16        0.0%
BITBANK4           100      0       0      13        0.0%
BANK4              100      0       0      14        0.0%
BITBANK3           100      0       0      11        0.0%
BANK3              100      0       0      12        0.0%
BITBANK2           100      0       0       9        0.0%
BANK2              100      0       0      10        0.0%
BITBANK1           100      0       0       7        0.0%
BANK1              100      0       0       8        0.0%
BITBANK14           B0      0       0      33        0.0%
BANK14              B0      0       0      34        0.0%
BITBANK0            A0      0       0       4        0.0%
BANK0               A0      0       0       5        0.0%
BITCOMRAM           5F      0       0       0        0.0%
COMRAM              5F     3C      5F       1      100.0%
BITSFR_2             0      0       0      40        0.0%
SFR_2                0      0       0      40        0.0%
BITSFR_1             0      0       0      40        0.0%
SFR_1                0      0       0      40        0.0%
BITSFR               0      0       0      40        0.0%
SFR                  0      0       0      40        0.0%
STACK                0      0       0       2        0.0%
NULL                 0      0       0       0        0.0%
ABS                  0      0      5F       6        0.0%
DATA                 0      0     2C7       3        0.0%
CODE                 0      0       0       0        0.0%


Microchip Technology PIC18 Macro Assembler V1.32 build 58300 
Symbol Table                                                                                   Sun Nov 29 20:44:20 2015

            _HOLD_SAMPLING 0059                         l63 162C               ___awdiv@sign 0006  
      ___wmul@multiplicand 0003               __CFG_CP0$OFF 000000                        _PR2 000FCB  
              _trigger_dir 0057              _BUTTON_SELECT 0041                        wreg 000FE8  
                     l1401 1398                       l1321 1644                       l1413 13BE  
                     l1405 13A6                       l1341 12DA                       l1333 12C2  
                     l1319 1638                       l1417 13CC                       l1409 13B0  
                     l1361 1318                       l1353 1300                       l1345 12E8  
                     l1337 12CC                       l1329 12B4                       l1381 135A  
                     l1373 133E                       l1365 1326                       l1357 130E  
                     l1349 12F2                       l1393 1380                       l1385 1364  
                     l1377 134C                       l1369 1334                       l1397 138A  
                     l1389 1372                       l1777 0064                       STR_1 FFF3  
                     STR_2 FFF5                       STR_3 FFF7                       STR_4 FFF9  
                     STR_5 FFFB                       STR_6 FFED                       STR_7 FFFD  
                     _LATB 000F8A                       _LATC 000F8B               __CFG_WDTPS$1 000000  
                     _main 0000                       fsr0h 000FEA                       fsr1h 000FE2  
                     fsr0l 000FE9                       fsr2h 000FDA                       fsr1l 000FE1  
                     indf2 000FDF                       fsr2l 000FD9                       pclat 000FFA  
                     prodh 000FF4                       prodl 000FF3                       start 0096  
            __CFG_IESO$OFF 000000            __end_of_Font5x7 FFAD            __end_of_ReadADC 1678  
         __end_of_LEDBLINK 13DA       _INFINITE_PERSISTENCE 0049              __CFG_PLLDIV$2 000000  
handle_int_adc@next_sample 000B                      ?_main 002B            __end_of___awdiv 15B0  
                    STR_14 FFD6                      STR_15 FFDF                      STR_16 FFE6  
                    STR_17 FFB7                      STR_18 FFCD                      STR_19 FFC3  
                    _T0CON 000FD5            ___awdiv@divisor 0003                      _T1CON 000FCD  
                    _T2CON 000FCA                      i2l140 0052                      i2l144 005C  
          ___awdiv@counter 0005                      _TMR0H 000FD7                      _TMR1H 000FCF  
                    _TMR0L 000FD6                      _TMR1L 000FCE                      _TRISA 000F92  
                    _TRISB 000F93                      _TRISC 000F94            __end_of_delayms 1656  
           __CFG_FCMEN$OFF 000000            __end_of_dpowers FFB7                      main@a 0032  
                    main@b 0034                      main@c 0036                      main@d 0038  
                    tablat 000FF5                      status 000FD8            __initialization 15B0  
             __end_of_main 1294  handle_int_adc@prev_sample 000C                     ??_main 0030  
            __activetblptr 000003              main@led_delay 003B                     _ADCON0 000FC2  
                   _ADCON1 000FC1                     _ADRESH 000FC4                     _ADRESL 000FC3  
                   _CCPR4L 000F13                     _CCPR5L 000F10                     _CCPR6L 000F0D  
                   _CCPR7L 000F0A                     _CCPR9L 000F04                     _ANCON0 000F48  
                   _ANCON1 000F49           ___awdiv@dividend 0001                     i2l1281 156E  
                   i2l1273 1550                     i2l1441 14C4                     i2l1291 158E  
                   i2l1283 1572                     i2l1267 1530                     i2l1279 1566  
                   i2l1295 1598                     i2l1449 14E4                     i2l1299 15A6  
           __CFG_WDTEN$OFF 000000               _FALLING_EDGE 0045                  ??_ReadADC 0003  
           __CFG_XINST$OFF 000000                     ___wmul 15EE                  ??___awdiv 0005  
                   clear_0 15B8                     clear_1 15CA           ___awdiv@quotient 0007  
                ??_delayms 0022                     _usleep 1614               __pdataCOMRAM 005E  
             __mediumconst FDCC                     tblptrh 000FF7                     tblptrl 000FF6  
                   tblptru 000FF8                  ?_LEDBLINK 001B                 __accesstop 0060  
  __end_of__initialization 15E8             __pcstackCOMRAM 0001  __size_of_InterruptHandler 008E  
               ??_LEDBLINK 002B          __CFG_PLLSEL$PLL96 000000                    ?___wmul 0001  
                  _ADCTRIG 000EB8                    _CCP4CON 000F12                    _CCP5CON 000F0F  
                  _CCP6CON 000F0C                    _CCP7CON 000F09                    _CCP9CON 000F03  
                  _CCPR10L 000F01                    ?_usleep 001B         __CFG_OSC$INTOSCPLL 000000  
                  i2u55_40 14FA                    i2u55_46 14FC    __size_of_handle_int_adc 0132  
                  _SSP1BUF 000FC9           __CFG_CFGPLLEN$ON 000000                    _Font5x7 FDCD  
                  _ReadADC 166E                    __Hparam 0000                    __Lparam 0000  
                  ___awdiv 150C            __size_of___wmul 0026                    __pcinit 15B0  
                  __ramtop 0F00                    _delayms 1636                    __ptext0 0000  
                  __ptext1 1656                    __ptext2 1678                    __ptext3 1636  
                  __ptext4 1614                    __ptext5 1294                    __ptext7 13DA  
                  __ptext8 15EE                    __ptext9 150C            __size_of_usleep 0022  
                _T1CONbits 000FCD                    _dpowers FFAD                    _samples 0C48  
                  main@LED 0030           main@first_sample 003A       end_of_initialization 15E8  
                _LINE_MASK 004B                 _saved_buff 005D               _MEASURE_LINE 005E  
               _timer0Init 1678                 _timer1Init 1656                    postdec1 000FE5  
                  postinc0 000FEE           _InterruptHandler 0008                  _TRISAbits 000F92  
                _TRISBbits 000F93                  _TRISCbits 000F94          __size_of_LEDBLINK 0146  
           __end_of___wmul 1614              __pidataCOMRAM 167E           __CFG_DSWDTEN$OFF 000000  
           __end_of_usleep 1636        start_initialization 15B0             _handle_int_adc 13DA  
              _EDGE_SAMPLE 0043                ?_timer0Init 0001                ?_timer1Init 0001  
                 ??___wmul 0005                   ??_usleep 001D     __end_of_handle_int_adc 150C  
              __pbssBIGRAM 0C48              _samples_ready 005C                __pbssCOMRAM 003D  
      __end_of__stringdata FFFF               _current_buff 005A                   ?_ReadADC 0001  
                __pintcode 0008              __pmediumconst FDCC              LEDBLINK@port1 001B  
            LEDBLINK@port2 001D              LEDBLINK@port3 001F              LEDBLINK@port4 0021  
            LEDBLINK@port5 0023              LEDBLINK@port6 0025              LEDBLINK@port7 0027  
            LEDBLINK@port8 0029                   ?___awdiv 0001                usleep@ticks 001B  
                 ?_delayms 0020                   _CCP10CON 000F00            ?_handle_int_adc 0001  
                 _CCPTMRS1 000F51                   _CCPTMRS2 000F50        __size_of_timer0Init 0006  
      __size_of_timer1Init 0018                   _LEDBLINK 1294                   _HOLD_OFF 0047  
 __end_of_InterruptHandler 0096             ___wmul@product 0005                   _LATAbits 000F89  
                 _LATBbits 000F8A                   _LATCbits 000F8B                  delayms@ms 0020  
                 _PIE1bits 000F9D                   _PIR1bits 000F9E                   _TIMEBASE 0051  
                 _SSP1CON1 000FC6                _AUTO_SAMPLE 003D                   _SSP1STAT 000FC7  
               _BACK_COLOR 003F                 _ADCON0bits 000FC2                __stringdata FFB7  
        ___wmul@multiplier 0001           __size_of_ReadADC 000A                   __Hrparam 0000  
                 __Lrparam 0000               _sample_index 0055           __size_of___awdiv 00A4  
         __size_of_delayms 0020                _current_adc 0053                   _delay_2s 005B  
                 __ptext10 166E              __size_of_main 1294               ??_timer0Init 001B  
             ??_timer1Init 001B                   main@argc 002B                   main@argv 002D  
             _SSP1STATbits 000FC7                _POINT_COLOR 004D                _RISING_EDGE 004F  
               _INTCONbits 000FF2               _TRIGGER_LINE 005F         __end_of_timer0Init 167E  
       __end_of_timer1Init 166E                   intlevel2 0000           ??_handle_int_adc 0009  
        ?_InterruptHandler 0001         ??_InterruptHandler 000D  
